
;CodeVisionAVR C Compiler V3.12 Advanced
;(C) Copyright 1998-2014 Pavel Haiduc, HP InfoTech s.r.l.
;http://www.hpinfotech.com

;Build configuration    : Debug
;Chip type              : ATmega128
;Program type           : Application
;Clock frequency        : 8.000000 MHz
;Memory model           : Small
;Optimize for           : Size
;(s)printf features     : int, width
;(s)scanf features      : int, width
;External RAM size      : 0
;Data Stack size        : 1024 byte(s)
;Heap size              : 0 byte(s)
;Promote 'char' to 'int': Yes
;'char' is unsigned     : Yes
;8 bit enums            : Yes
;Global 'const' stored in FLASH: No
;Enhanced function parameter passing: Yes
;Enhanced core instructions: On
;Automatic register allocation for global variables: On
;Smart register allocation: On

	#define _MODEL_SMALL_

	#pragma AVRPART ADMIN PART_NAME ATmega128
	#pragma AVRPART MEMORY PROG_FLASH 131072
	#pragma AVRPART MEMORY EEPROM 4096
	#pragma AVRPART MEMORY INT_SRAM SIZE 4096
	#pragma AVRPART MEMORY INT_SRAM START_ADDR 0x100

	#define CALL_SUPPORTED 1

	.LISTMAC
	.EQU UDRE=0x5
	.EQU RXC=0x7
	.EQU USR=0xB
	.EQU UDR=0xC
	.EQU SPSR=0xE
	.EQU SPDR=0xF
	.EQU EERE=0x0
	.EQU EEWE=0x1
	.EQU EEMWE=0x2
	.EQU EECR=0x1C
	.EQU EEDR=0x1D
	.EQU EEARL=0x1E
	.EQU EEARH=0x1F
	.EQU WDTCR=0x21
	.EQU MCUCR=0x35
	.EQU RAMPZ=0x3B
	.EQU SPL=0x3D
	.EQU SPH=0x3E
	.EQU SREG=0x3F
	.EQU XMCRA=0x6D
	.EQU XMCRB=0x6C

	.DEF R0X0=R0
	.DEF R0X1=R1
	.DEF R0X2=R2
	.DEF R0X3=R3
	.DEF R0X4=R4
	.DEF R0X5=R5
	.DEF R0X6=R6
	.DEF R0X7=R7
	.DEF R0X8=R8
	.DEF R0X9=R9
	.DEF R0XA=R10
	.DEF R0XB=R11
	.DEF R0XC=R12
	.DEF R0XD=R13
	.DEF R0XE=R14
	.DEF R0XF=R15
	.DEF R0X10=R16
	.DEF R0X11=R17
	.DEF R0X12=R18
	.DEF R0X13=R19
	.DEF R0X14=R20
	.DEF R0X15=R21
	.DEF R0X16=R22
	.DEF R0X17=R23
	.DEF R0X18=R24
	.DEF R0X19=R25
	.DEF R0X1A=R26
	.DEF R0X1B=R27
	.DEF R0X1C=R28
	.DEF R0X1D=R29
	.DEF R0X1E=R30
	.DEF R0X1F=R31

	.EQU __SRAM_START=0x0100
	.EQU __SRAM_END=0x10FF
	.EQU __DSTACK_SIZE=0x0400
	.EQU __HEAP_SIZE=0x0000
	.EQU __CLEAR_SRAM_SIZE=__SRAM_END-__SRAM_START+1

	.MACRO __CPD1N
	CPI  R30,LOW(@0)
	LDI  R26,HIGH(@0)
	CPC  R31,R26
	LDI  R26,BYTE3(@0)
	CPC  R22,R26
	LDI  R26,BYTE4(@0)
	CPC  R23,R26
	.ENDM

	.MACRO __CPD2N
	CPI  R26,LOW(@0)
	LDI  R30,HIGH(@0)
	CPC  R27,R30
	LDI  R30,BYTE3(@0)
	CPC  R24,R30
	LDI  R30,BYTE4(@0)
	CPC  R25,R30
	.ENDM

	.MACRO __CPWRR
	CP   R@0,R@2
	CPC  R@1,R@3
	.ENDM

	.MACRO __CPWRN
	CPI  R@0,LOW(@2)
	LDI  R30,HIGH(@2)
	CPC  R@1,R30
	.ENDM

	.MACRO __ADDB1MN
	SUBI R30,LOW(-@0-(@1))
	.ENDM

	.MACRO __ADDB2MN
	SUBI R26,LOW(-@0-(@1))
	.ENDM

	.MACRO __ADDW1MN
	SUBI R30,LOW(-@0-(@1))
	SBCI R31,HIGH(-@0-(@1))
	.ENDM

	.MACRO __ADDW2MN
	SUBI R26,LOW(-@0-(@1))
	SBCI R27,HIGH(-@0-(@1))
	.ENDM

	.MACRO __ADDW1FN
	SUBI R30,LOW(-2*@0-(@1))
	SBCI R31,HIGH(-2*@0-(@1))
	.ENDM

	.MACRO __ADDD1FN
	SUBI R30,LOW(-2*@0-(@1))
	SBCI R31,HIGH(-2*@0-(@1))
	SBCI R22,BYTE3(-2*@0-(@1))
	.ENDM

	.MACRO __ADDD1N
	SUBI R30,LOW(-@0)
	SBCI R31,HIGH(-@0)
	SBCI R22,BYTE3(-@0)
	SBCI R23,BYTE4(-@0)
	.ENDM

	.MACRO __ADDD2N
	SUBI R26,LOW(-@0)
	SBCI R27,HIGH(-@0)
	SBCI R24,BYTE3(-@0)
	SBCI R25,BYTE4(-@0)
	.ENDM

	.MACRO __SUBD1N
	SUBI R30,LOW(@0)
	SBCI R31,HIGH(@0)
	SBCI R22,BYTE3(@0)
	SBCI R23,BYTE4(@0)
	.ENDM

	.MACRO __SUBD2N
	SUBI R26,LOW(@0)
	SBCI R27,HIGH(@0)
	SBCI R24,BYTE3(@0)
	SBCI R25,BYTE4(@0)
	.ENDM

	.MACRO __ANDBMNN
	LDS  R30,@0+(@1)
	ANDI R30,LOW(@2)
	STS  @0+(@1),R30
	.ENDM

	.MACRO __ANDWMNN
	LDS  R30,@0+(@1)
	ANDI R30,LOW(@2)
	STS  @0+(@1),R30
	LDS  R30,@0+(@1)+1
	ANDI R30,HIGH(@2)
	STS  @0+(@1)+1,R30
	.ENDM

	.MACRO __ANDD1N
	ANDI R30,LOW(@0)
	ANDI R31,HIGH(@0)
	ANDI R22,BYTE3(@0)
	ANDI R23,BYTE4(@0)
	.ENDM

	.MACRO __ANDD2N
	ANDI R26,LOW(@0)
	ANDI R27,HIGH(@0)
	ANDI R24,BYTE3(@0)
	ANDI R25,BYTE4(@0)
	.ENDM

	.MACRO __ORBMNN
	LDS  R30,@0+(@1)
	ORI  R30,LOW(@2)
	STS  @0+(@1),R30
	.ENDM

	.MACRO __ORWMNN
	LDS  R30,@0+(@1)
	ORI  R30,LOW(@2)
	STS  @0+(@1),R30
	LDS  R30,@0+(@1)+1
	ORI  R30,HIGH(@2)
	STS  @0+(@1)+1,R30
	.ENDM

	.MACRO __ORD1N
	ORI  R30,LOW(@0)
	ORI  R31,HIGH(@0)
	ORI  R22,BYTE3(@0)
	ORI  R23,BYTE4(@0)
	.ENDM

	.MACRO __ORD2N
	ORI  R26,LOW(@0)
	ORI  R27,HIGH(@0)
	ORI  R24,BYTE3(@0)
	ORI  R25,BYTE4(@0)
	.ENDM

	.MACRO __DELAY_USB
	LDI  R24,LOW(@0)
__DELAY_USB_LOOP:
	DEC  R24
	BRNE __DELAY_USB_LOOP
	.ENDM

	.MACRO __DELAY_USW
	LDI  R24,LOW(@0)
	LDI  R25,HIGH(@0)
__DELAY_USW_LOOP:
	SBIW R24,1
	BRNE __DELAY_USW_LOOP
	.ENDM

	.MACRO __GETD1S
	LDD  R30,Y+@0
	LDD  R31,Y+@0+1
	LDD  R22,Y+@0+2
	LDD  R23,Y+@0+3
	.ENDM

	.MACRO __GETD2S
	LDD  R26,Y+@0
	LDD  R27,Y+@0+1
	LDD  R24,Y+@0+2
	LDD  R25,Y+@0+3
	.ENDM

	.MACRO __PUTD1S
	STD  Y+@0,R30
	STD  Y+@0+1,R31
	STD  Y+@0+2,R22
	STD  Y+@0+3,R23
	.ENDM

	.MACRO __PUTD2S
	STD  Y+@0,R26
	STD  Y+@0+1,R27
	STD  Y+@0+2,R24
	STD  Y+@0+3,R25
	.ENDM

	.MACRO __PUTDZ2
	STD  Z+@0,R26
	STD  Z+@0+1,R27
	STD  Z+@0+2,R24
	STD  Z+@0+3,R25
	.ENDM

	.MACRO __CLRD1S
	STD  Y+@0,R30
	STD  Y+@0+1,R30
	STD  Y+@0+2,R30
	STD  Y+@0+3,R30
	.ENDM

	.MACRO __POINTB1MN
	LDI  R30,LOW(@0+(@1))
	.ENDM

	.MACRO __POINTW1MN
	LDI  R30,LOW(@0+(@1))
	LDI  R31,HIGH(@0+(@1))
	.ENDM

	.MACRO __POINTD1M
	LDI  R30,LOW(@0)
	LDI  R31,HIGH(@0)
	LDI  R22,BYTE3(@0)
	LDI  R23,BYTE4(@0)
	.ENDM

	.MACRO __POINTW1FN
	LDI  R30,LOW(2*@0+(@1))
	LDI  R31,HIGH(2*@0+(@1))
	.ENDM

	.MACRO __POINTD1FN
	LDI  R30,LOW(2*@0+(@1))
	LDI  R31,HIGH(2*@0+(@1))
	LDI  R22,BYTE3(2*@0+(@1))
	LDI  R23,BYTE4(2*@0+(@1))
	.ENDM

	.MACRO __POINTB2MN
	LDI  R26,LOW(@0+(@1))
	.ENDM

	.MACRO __POINTW2MN
	LDI  R26,LOW(@0+(@1))
	LDI  R27,HIGH(@0+(@1))
	.ENDM

	.MACRO __POINTW2FN
	LDI  R26,LOW(2*@0+(@1))
	LDI  R27,HIGH(2*@0+(@1))
	.ENDM

	.MACRO __POINTD2FN
	LDI  R26,LOW(2*@0+(@1))
	LDI  R27,HIGH(2*@0+(@1))
	LDI  R24,BYTE3(2*@0+(@1))
	LDI  R25,BYTE4(2*@0+(@1))
	.ENDM

	.MACRO __POINTBRM
	LDI  R@0,LOW(@1)
	.ENDM

	.MACRO __POINTWRM
	LDI  R@0,LOW(@2)
	LDI  R@1,HIGH(@2)
	.ENDM

	.MACRO __POINTBRMN
	LDI  R@0,LOW(@1+(@2))
	.ENDM

	.MACRO __POINTWRMN
	LDI  R@0,LOW(@2+(@3))
	LDI  R@1,HIGH(@2+(@3))
	.ENDM

	.MACRO __POINTWRFN
	LDI  R@0,LOW(@2*2+(@3))
	LDI  R@1,HIGH(@2*2+(@3))
	.ENDM

	.MACRO __GETD1N
	LDI  R30,LOW(@0)
	LDI  R31,HIGH(@0)
	LDI  R22,BYTE3(@0)
	LDI  R23,BYTE4(@0)
	.ENDM

	.MACRO __GETD2N
	LDI  R26,LOW(@0)
	LDI  R27,HIGH(@0)
	LDI  R24,BYTE3(@0)
	LDI  R25,BYTE4(@0)
	.ENDM

	.MACRO __GETB1MN
	LDS  R30,@0+(@1)
	.ENDM

	.MACRO __GETB1HMN
	LDS  R31,@0+(@1)
	.ENDM

	.MACRO __GETW1MN
	LDS  R30,@0+(@1)
	LDS  R31,@0+(@1)+1
	.ENDM

	.MACRO __GETD1MN
	LDS  R30,@0+(@1)
	LDS  R31,@0+(@1)+1
	LDS  R22,@0+(@1)+2
	LDS  R23,@0+(@1)+3
	.ENDM

	.MACRO __GETBRMN
	LDS  R@0,@1+(@2)
	.ENDM

	.MACRO __GETWRMN
	LDS  R@0,@2+(@3)
	LDS  R@1,@2+(@3)+1
	.ENDM

	.MACRO __GETWRZ
	LDD  R@0,Z+@2
	LDD  R@1,Z+@2+1
	.ENDM

	.MACRO __GETD2Z
	LDD  R26,Z+@0
	LDD  R27,Z+@0+1
	LDD  R24,Z+@0+2
	LDD  R25,Z+@0+3
	.ENDM

	.MACRO __GETB2MN
	LDS  R26,@0+(@1)
	.ENDM

	.MACRO __GETW2MN
	LDS  R26,@0+(@1)
	LDS  R27,@0+(@1)+1
	.ENDM

	.MACRO __GETD2MN
	LDS  R26,@0+(@1)
	LDS  R27,@0+(@1)+1
	LDS  R24,@0+(@1)+2
	LDS  R25,@0+(@1)+3
	.ENDM

	.MACRO __PUTB1MN
	STS  @0+(@1),R30
	.ENDM

	.MACRO __PUTW1MN
	STS  @0+(@1),R30
	STS  @0+(@1)+1,R31
	.ENDM

	.MACRO __PUTD1MN
	STS  @0+(@1),R30
	STS  @0+(@1)+1,R31
	STS  @0+(@1)+2,R22
	STS  @0+(@1)+3,R23
	.ENDM

	.MACRO __PUTB1EN
	LDI  R26,LOW(@0+(@1))
	LDI  R27,HIGH(@0+(@1))
	CALL __EEPROMWRB
	.ENDM

	.MACRO __PUTW1EN
	LDI  R26,LOW(@0+(@1))
	LDI  R27,HIGH(@0+(@1))
	CALL __EEPROMWRW
	.ENDM

	.MACRO __PUTD1EN
	LDI  R26,LOW(@0+(@1))
	LDI  R27,HIGH(@0+(@1))
	CALL __EEPROMWRD
	.ENDM

	.MACRO __PUTBR0MN
	STS  @0+(@1),R0
	.ENDM

	.MACRO __PUTBMRN
	STS  @0+(@1),R@2
	.ENDM

	.MACRO __PUTWMRN
	STS  @0+(@1),R@2
	STS  @0+(@1)+1,R@3
	.ENDM

	.MACRO __PUTBZR
	STD  Z+@1,R@0
	.ENDM

	.MACRO __PUTWZR
	STD  Z+@2,R@0
	STD  Z+@2+1,R@1
	.ENDM

	.MACRO __GETW1R
	MOV  R30,R@0
	MOV  R31,R@1
	.ENDM

	.MACRO __GETW2R
	MOV  R26,R@0
	MOV  R27,R@1
	.ENDM

	.MACRO __GETWRN
	LDI  R@0,LOW(@2)
	LDI  R@1,HIGH(@2)
	.ENDM

	.MACRO __PUTW1R
	MOV  R@0,R30
	MOV  R@1,R31
	.ENDM

	.MACRO __PUTW2R
	MOV  R@0,R26
	MOV  R@1,R27
	.ENDM

	.MACRO __ADDWRN
	SUBI R@0,LOW(-@2)
	SBCI R@1,HIGH(-@2)
	.ENDM

	.MACRO __ADDWRR
	ADD  R@0,R@2
	ADC  R@1,R@3
	.ENDM

	.MACRO __SUBWRN
	SUBI R@0,LOW(@2)
	SBCI R@1,HIGH(@2)
	.ENDM

	.MACRO __SUBWRR
	SUB  R@0,R@2
	SBC  R@1,R@3
	.ENDM

	.MACRO __ANDWRN
	ANDI R@0,LOW(@2)
	ANDI R@1,HIGH(@2)
	.ENDM

	.MACRO __ANDWRR
	AND  R@0,R@2
	AND  R@1,R@3
	.ENDM

	.MACRO __ORWRN
	ORI  R@0,LOW(@2)
	ORI  R@1,HIGH(@2)
	.ENDM

	.MACRO __ORWRR
	OR   R@0,R@2
	OR   R@1,R@3
	.ENDM

	.MACRO __EORWRR
	EOR  R@0,R@2
	EOR  R@1,R@3
	.ENDM

	.MACRO __GETWRS
	LDD  R@0,Y+@2
	LDD  R@1,Y+@2+1
	.ENDM

	.MACRO __PUTBSR
	STD  Y+@1,R@0
	.ENDM

	.MACRO __PUTWSR
	STD  Y+@2,R@0
	STD  Y+@2+1,R@1
	.ENDM

	.MACRO __MOVEWRR
	MOV  R@0,R@2
	MOV  R@1,R@3
	.ENDM

	.MACRO __INWR
	IN   R@0,@2
	IN   R@1,@2+1
	.ENDM

	.MACRO __OUTWR
	OUT  @2+1,R@1
	OUT  @2,R@0
	.ENDM

	.MACRO __CALL1MN
	LDS  R30,@0+(@1)
	LDS  R31,@0+(@1)+1
	ICALL
	.ENDM

	.MACRO __CALL1FN
	LDI  R30,LOW(2*@0+(@1))
	LDI  R31,HIGH(2*@0+(@1))
	CALL __GETW1PF
	ICALL
	.ENDM

	.MACRO __CALL2EN
	PUSH R26
	PUSH R27
	LDI  R26,LOW(@0+(@1))
	LDI  R27,HIGH(@0+(@1))
	CALL __EEPROMRDW
	POP  R27
	POP  R26
	ICALL
	.ENDM

	.MACRO __CALL2EX
	SUBI R26,LOW(-@0)
	SBCI R27,HIGH(-@0)
	CALL __EEPROMRDD
	ICALL
	.ENDM

	.MACRO __GETW1STACK
	IN   R30,SPL
	IN   R31,SPH
	ADIW R30,@0+1
	LD   R0,Z+
	LD   R31,Z
	MOV  R30,R0
	.ENDM

	.MACRO __GETD1STACK
	IN   R30,SPL
	IN   R31,SPH
	ADIW R30,@0+1
	LD   R0,Z+
	LD   R1,Z+
	LD   R22,Z
	MOVW R30,R0
	.ENDM

	.MACRO __NBST
	BST  R@0,@1
	IN   R30,SREG
	LDI  R31,0x40
	EOR  R30,R31
	OUT  SREG,R30
	.ENDM


	.MACRO __PUTB1SN
	LDD  R26,Y+@0
	LDD  R27,Y+@0+1
	SUBI R26,LOW(-@1)
	SBCI R27,HIGH(-@1)
	ST   X,R30
	.ENDM

	.MACRO __PUTW1SN
	LDD  R26,Y+@0
	LDD  R27,Y+@0+1
	SUBI R26,LOW(-@1)
	SBCI R27,HIGH(-@1)
	ST   X+,R30
	ST   X,R31
	.ENDM

	.MACRO __PUTD1SN
	LDD  R26,Y+@0
	LDD  R27,Y+@0+1
	SUBI R26,LOW(-@1)
	SBCI R27,HIGH(-@1)
	CALL __PUTDP1
	.ENDM

	.MACRO __PUTB1SNS
	LDD  R26,Y+@0
	LDD  R27,Y+@0+1
	ADIW R26,@1
	ST   X,R30
	.ENDM

	.MACRO __PUTW1SNS
	LDD  R26,Y+@0
	LDD  R27,Y+@0+1
	ADIW R26,@1
	ST   X+,R30
	ST   X,R31
	.ENDM

	.MACRO __PUTD1SNS
	LDD  R26,Y+@0
	LDD  R27,Y+@0+1
	ADIW R26,@1
	CALL __PUTDP1
	.ENDM

	.MACRO __PUTB1PMN
	LDS  R26,@0
	LDS  R27,@0+1
	SUBI R26,LOW(-@1)
	SBCI R27,HIGH(-@1)
	ST   X,R30
	.ENDM

	.MACRO __PUTW1PMN
	LDS  R26,@0
	LDS  R27,@0+1
	SUBI R26,LOW(-@1)
	SBCI R27,HIGH(-@1)
	ST   X+,R30
	ST   X,R31
	.ENDM

	.MACRO __PUTD1PMN
	LDS  R26,@0
	LDS  R27,@0+1
	SUBI R26,LOW(-@1)
	SBCI R27,HIGH(-@1)
	CALL __PUTDP1
	.ENDM

	.MACRO __PUTB1PMNS
	LDS  R26,@0
	LDS  R27,@0+1
	ADIW R26,@1
	ST   X,R30
	.ENDM

	.MACRO __PUTW1PMNS
	LDS  R26,@0
	LDS  R27,@0+1
	ADIW R26,@1
	ST   X+,R30
	ST   X,R31
	.ENDM

	.MACRO __PUTD1PMNS
	LDS  R26,@0
	LDS  R27,@0+1
	ADIW R26,@1
	CALL __PUTDP1
	.ENDM

	.MACRO __PUTB1RN
	MOVW R26,R@0
	SUBI R26,LOW(-@1)
	SBCI R27,HIGH(-@1)
	ST   X,R30
	.ENDM

	.MACRO __PUTW1RN
	MOVW R26,R@0
	SUBI R26,LOW(-@1)
	SBCI R27,HIGH(-@1)
	ST   X+,R30
	ST   X,R31
	.ENDM

	.MACRO __PUTD1RN
	MOVW R26,R@0
	SUBI R26,LOW(-@1)
	SBCI R27,HIGH(-@1)
	CALL __PUTDP1
	.ENDM

	.MACRO __PUTB1RNS
	MOVW R26,R@0
	ADIW R26,@1
	ST   X,R30
	.ENDM

	.MACRO __PUTW1RNS
	MOVW R26,R@0
	ADIW R26,@1
	ST   X+,R30
	ST   X,R31
	.ENDM

	.MACRO __PUTD1RNS
	MOVW R26,R@0
	ADIW R26,@1
	CALL __PUTDP1
	.ENDM

	.MACRO __PUTB1RON
	MOV  R26,R@0
	MOV  R27,R@1
	SUBI R26,LOW(-@2)
	SBCI R27,HIGH(-@2)
	ST   X,R30
	.ENDM

	.MACRO __PUTW1RON
	MOV  R26,R@0
	MOV  R27,R@1
	SUBI R26,LOW(-@2)
	SBCI R27,HIGH(-@2)
	ST   X+,R30
	ST   X,R31
	.ENDM

	.MACRO __PUTD1RON
	MOV  R26,R@0
	MOV  R27,R@1
	SUBI R26,LOW(-@2)
	SBCI R27,HIGH(-@2)
	CALL __PUTDP1
	.ENDM

	.MACRO __PUTB1RONS
	MOV  R26,R@0
	MOV  R27,R@1
	ADIW R26,@2
	ST   X,R30
	.ENDM

	.MACRO __PUTW1RONS
	MOV  R26,R@0
	MOV  R27,R@1
	ADIW R26,@2
	ST   X+,R30
	ST   X,R31
	.ENDM

	.MACRO __PUTD1RONS
	MOV  R26,R@0
	MOV  R27,R@1
	ADIW R26,@2
	CALL __PUTDP1
	.ENDM


	.MACRO __GETB1SX
	MOVW R30,R28
	SUBI R30,LOW(-@0)
	SBCI R31,HIGH(-@0)
	LD   R30,Z
	.ENDM

	.MACRO __GETB1HSX
	MOVW R30,R28
	SUBI R30,LOW(-@0)
	SBCI R31,HIGH(-@0)
	LD   R31,Z
	.ENDM

	.MACRO __GETW1SX
	MOVW R30,R28
	SUBI R30,LOW(-@0)
	SBCI R31,HIGH(-@0)
	LD   R0,Z+
	LD   R31,Z
	MOV  R30,R0
	.ENDM

	.MACRO __GETD1SX
	MOVW R30,R28
	SUBI R30,LOW(-@0)
	SBCI R31,HIGH(-@0)
	LD   R0,Z+
	LD   R1,Z+
	LD   R22,Z+
	LD   R23,Z
	MOVW R30,R0
	.ENDM

	.MACRO __GETB2SX
	MOVW R26,R28
	SUBI R26,LOW(-@0)
	SBCI R27,HIGH(-@0)
	LD   R26,X
	.ENDM

	.MACRO __GETW2SX
	MOVW R26,R28
	SUBI R26,LOW(-@0)
	SBCI R27,HIGH(-@0)
	LD   R0,X+
	LD   R27,X
	MOV  R26,R0
	.ENDM

	.MACRO __GETD2SX
	MOVW R26,R28
	SUBI R26,LOW(-@0)
	SBCI R27,HIGH(-@0)
	LD   R0,X+
	LD   R1,X+
	LD   R24,X+
	LD   R25,X
	MOVW R26,R0
	.ENDM

	.MACRO __GETBRSX
	MOVW R30,R28
	SUBI R30,LOW(-@1)
	SBCI R31,HIGH(-@1)
	LD   R@0,Z
	.ENDM

	.MACRO __GETWRSX
	MOVW R30,R28
	SUBI R30,LOW(-@2)
	SBCI R31,HIGH(-@2)
	LD   R@0,Z+
	LD   R@1,Z
	.ENDM

	.MACRO __GETBRSX2
	MOVW R26,R28
	SUBI R26,LOW(-@1)
	SBCI R27,HIGH(-@1)
	LD   R@0,X
	.ENDM

	.MACRO __GETWRSX2
	MOVW R26,R28
	SUBI R26,LOW(-@2)
	SBCI R27,HIGH(-@2)
	LD   R@0,X+
	LD   R@1,X
	.ENDM

	.MACRO __LSLW8SX
	MOVW R30,R28
	SUBI R30,LOW(-@0)
	SBCI R31,HIGH(-@0)
	LD   R31,Z
	CLR  R30
	.ENDM

	.MACRO __PUTB1SX
	MOVW R26,R28
	SUBI R26,LOW(-@0)
	SBCI R27,HIGH(-@0)
	ST   X,R30
	.ENDM

	.MACRO __PUTW1SX
	MOVW R26,R28
	SUBI R26,LOW(-@0)
	SBCI R27,HIGH(-@0)
	ST   X+,R30
	ST   X,R31
	.ENDM

	.MACRO __PUTD1SX
	MOVW R26,R28
	SUBI R26,LOW(-@0)
	SBCI R27,HIGH(-@0)
	ST   X+,R30
	ST   X+,R31
	ST   X+,R22
	ST   X,R23
	.ENDM

	.MACRO __CLRW1SX
	MOVW R26,R28
	SUBI R26,LOW(-@0)
	SBCI R27,HIGH(-@0)
	ST   X+,R30
	ST   X,R30
	.ENDM

	.MACRO __CLRD1SX
	MOVW R26,R28
	SUBI R26,LOW(-@0)
	SBCI R27,HIGH(-@0)
	ST   X+,R30
	ST   X+,R30
	ST   X+,R30
	ST   X,R30
	.ENDM

	.MACRO __PUTB2SX
	MOVW R30,R28
	SUBI R30,LOW(-@0)
	SBCI R31,HIGH(-@0)
	ST   Z,R26
	.ENDM

	.MACRO __PUTW2SX
	MOVW R30,R28
	SUBI R30,LOW(-@0)
	SBCI R31,HIGH(-@0)
	ST   Z+,R26
	ST   Z,R27
	.ENDM

	.MACRO __PUTD2SX
	MOVW R30,R28
	SUBI R30,LOW(-@0)
	SBCI R31,HIGH(-@0)
	ST   Z+,R26
	ST   Z+,R27
	ST   Z+,R24
	ST   Z,R25
	.ENDM

	.MACRO __PUTBSRX
	MOVW R30,R28
	SUBI R30,LOW(-@1)
	SBCI R31,HIGH(-@1)
	ST   Z,R@0
	.ENDM

	.MACRO __PUTWSRX
	MOVW R30,R28
	SUBI R30,LOW(-@2)
	SBCI R31,HIGH(-@2)
	ST   Z+,R@0
	ST   Z,R@1
	.ENDM

	.MACRO __PUTB1SNX
	MOVW R26,R28
	SUBI R26,LOW(-@0)
	SBCI R27,HIGH(-@0)
	LD   R0,X+
	LD   R27,X
	MOV  R26,R0
	SUBI R26,LOW(-@1)
	SBCI R27,HIGH(-@1)
	ST   X,R30
	.ENDM

	.MACRO __PUTW1SNX
	MOVW R26,R28
	SUBI R26,LOW(-@0)
	SBCI R27,HIGH(-@0)
	LD   R0,X+
	LD   R27,X
	MOV  R26,R0
	SUBI R26,LOW(-@1)
	SBCI R27,HIGH(-@1)
	ST   X+,R30
	ST   X,R31
	.ENDM

	.MACRO __PUTD1SNX
	MOVW R26,R28
	SUBI R26,LOW(-@0)
	SBCI R27,HIGH(-@0)
	LD   R0,X+
	LD   R27,X
	MOV  R26,R0
	SUBI R26,LOW(-@1)
	SBCI R27,HIGH(-@1)
	ST   X+,R30
	ST   X+,R31
	ST   X+,R22
	ST   X,R23
	.ENDM

	.MACRO __MULBRR
	MULS R@0,R@1
	MOVW R30,R0
	.ENDM

	.MACRO __MULBRRU
	MUL  R@0,R@1
	MOVW R30,R0
	.ENDM

	.MACRO __MULBRR0
	MULS R@0,R@1
	.ENDM

	.MACRO __MULBRRU0
	MUL  R@0,R@1
	.ENDM

	.MACRO __MULBNWRU
	LDI  R26,@2
	MUL  R26,R@0
	MOVW R30,R0
	MUL  R26,R@1
	ADD  R31,R0
	.ENDM

;NAME DEFINITIONS FOR GLOBAL VARIABLES ALLOCATED TO REGISTERS
	.DEF _hour=R5
	.DEF _minute=R4
	.DEF _second=R7
	.DEF _day=R6
	.DEF _month=R9
	.DEF _year=R10
	.DEF _year_msb=R11
	.DEF _display_mode=R8
	.DEF _edit_mode=R13
	.DEF _edit_field=R12

	.CSEG
	.ORG 0x00

;START OF CODE MARKER
__START_OF_CODE:

;INTERRUPT VECTORS
	JMP  __RESET
	JMP  0x00
	JMP  0x00
	JMP  0x00
	JMP  0x00
	JMP  0x00
	JMP  0x00
	JMP  0x00
	JMP  0x00
	JMP  0x00
	JMP  0x00
	JMP  0x00
	JMP  _timer1_compa_isr
	JMP  0x00
	JMP  0x00
	JMP  _timer0_comp_isr
	JMP  0x00
	JMP  0x00
	JMP  0x00
	JMP  0x00
	JMP  0x00
	JMP  0x00
	JMP  0x00
	JMP  0x00
	JMP  0x00
	JMP  0x00
	JMP  0x00
	JMP  0x00
	JMP  0x00
	JMP  0x00
	JMP  0x00
	JMP  0x00
	JMP  0x00
	JMP  0x00
	JMP  0x00

_font5x7:
	.DB  0x5,0x7,0x20,0x60,0x0,0x0,0x0,0x0
	.DB  0x0,0x0,0x0,0x5F,0x0,0x0,0x0,0x7
	.DB  0x0,0x7,0x0,0x14,0x7F,0x14,0x7F,0x14
	.DB  0x24,0x2A,0x7F,0x2A,0x12,0x23,0x13,0x8
	.DB  0x64,0x62,0x36,0x49,0x55,0x22,0x50,0x0
	.DB  0x5,0x3,0x0,0x0,0x0,0x1C,0x22,0x41
	.DB  0x0,0x0,0x41,0x22,0x1C,0x0,0x8,0x2A
	.DB  0x1C,0x2A,0x8,0x8,0x8,0x3E,0x8,0x8
	.DB  0x0,0x50,0x30,0x0,0x0,0x8,0x8,0x8
	.DB  0x8,0x8,0x0,0x30,0x30,0x0,0x0,0x20
	.DB  0x10,0x8,0x4,0x2,0x3E,0x51,0x49,0x45
	.DB  0x3E,0x0,0x42,0x7F,0x40,0x0,0x42,0x61
	.DB  0x51,0x49,0x46,0x21,0x41,0x45,0x4B,0x31
	.DB  0x18,0x14,0x12,0x7F,0x10,0x27,0x45,0x45
	.DB  0x45,0x39,0x3C,0x4A,0x49,0x49,0x30,0x1
	.DB  0x71,0x9,0x5,0x3,0x36,0x49,0x49,0x49
	.DB  0x36,0x6,0x49,0x49,0x29,0x1E,0x0,0x36
	.DB  0x36,0x0,0x0,0x0,0x56,0x36,0x0,0x0
	.DB  0x0,0x8,0x14,0x22,0x41,0x14,0x14,0x14
	.DB  0x14,0x14,0x41,0x22,0x14,0x8,0x0,0x2
	.DB  0x1,0x51,0x9,0x6,0x32,0x49,0x79,0x41
	.DB  0x3E,0x7E,0x11,0x11,0x11,0x7E,0x7F,0x49
	.DB  0x49,0x49,0x36,0x3E,0x41,0x41,0x41,0x22
	.DB  0x7F,0x41,0x41,0x22,0x1C,0x7F,0x49,0x49
	.DB  0x49,0x41,0x7F,0x9,0x9,0x1,0x1,0x3E
	.DB  0x41,0x41,0x51,0x32,0x7F,0x8,0x8,0x8
	.DB  0x7F,0x0,0x41,0x7F,0x41,0x0,0x20,0x40
	.DB  0x41,0x3F,0x1,0x7F,0x8,0x14,0x22,0x41
	.DB  0x7F,0x40,0x40,0x40,0x40,0x7F,0x2,0x4
	.DB  0x2,0x7F,0x7F,0x4,0x8,0x10,0x7F,0x3E
	.DB  0x41,0x41,0x41,0x3E,0x7F,0x9,0x9,0x9
	.DB  0x6,0x3E,0x41,0x51,0x21,0x5E,0x7F,0x9
	.DB  0x19,0x29,0x46,0x46,0x49,0x49,0x49,0x31
	.DB  0x1,0x1,0x7F,0x1,0x1,0x3F,0x40,0x40
	.DB  0x40,0x3F,0x1F,0x20,0x40,0x20,0x1F,0x7F
	.DB  0x20,0x18,0x20,0x7F,0x63,0x14,0x8,0x14
	.DB  0x63,0x3,0x4,0x78,0x4,0x3,0x61,0x51
	.DB  0x49,0x45,0x43,0x0,0x0,0x7F,0x41,0x41
	.DB  0x2,0x4,0x8,0x10,0x20,0x41,0x41,0x7F
	.DB  0x0,0x0,0x4,0x2,0x1,0x2,0x4,0x40
	.DB  0x40,0x40,0x40,0x40,0x0,0x1,0x2,0x4
	.DB  0x0,0x20,0x54,0x54,0x54,0x78,0x7F,0x48
	.DB  0x44,0x44,0x38,0x38,0x44,0x44,0x44,0x20
	.DB  0x38,0x44,0x44,0x48,0x7F,0x38,0x54,0x54
	.DB  0x54,0x18,0x8,0x7E,0x9,0x1,0x2,0x8
	.DB  0x14,0x54,0x54,0x3C,0x7F,0x8,0x4,0x4
	.DB  0x78,0x0,0x44,0x7D,0x40,0x0,0x20,0x40
	.DB  0x44,0x3D,0x0,0x0,0x7F,0x10,0x28,0x44
	.DB  0x0,0x41,0x7F,0x40,0x0,0x7C,0x4,0x18
	.DB  0x4,0x78,0x7C,0x8,0x4,0x4,0x78,0x38
	.DB  0x44,0x44,0x44,0x38,0x7C,0x14,0x14,0x14
	.DB  0x8,0x8,0x14,0x14,0x18,0x7C,0x7C,0x8
	.DB  0x4,0x4,0x8,0x48,0x54,0x54,0x54,0x20
	.DB  0x4,0x3F,0x44,0x40,0x20,0x3C,0x40,0x40
	.DB  0x20,0x7C,0x1C,0x20,0x40,0x20,0x1C,0x3C
	.DB  0x40,0x30,0x40,0x3C,0x44,0x28,0x10,0x28
	.DB  0x44,0xC,0x50,0x50,0x50,0x3C,0x44,0x64
	.DB  0x54,0x4C,0x44,0x0,0x8,0x36,0x41,0x0
	.DB  0x0,0x0,0x7F,0x0,0x0,0x0,0x41,0x36
	.DB  0x8,0x0,0x2,0x1,0x2,0x4,0x2,0x7F
	.DB  0x41,0x41,0x41,0x7F
_lunar_table:
	.DB  0xCF,0x7,0xC,0x8,0xCF,0x7,0xB,0x0
	.DB  0x1E,0xD0,0x7,0x1,0x7,0xCF,0x7,0xC
	.DB  0x0,0x1D,0xD0,0x7,0x2,0x5,0xD0,0x7
	.DB  0x1,0x0,0x1E,0xD0,0x7,0x3,0x6,0xD0
	.DB  0x7,0x2,0x0,0x1E,0xD0,0x7,0x4,0x5
	.DB  0xD0,0x7,0x3,0x0,0x1D,0xD0,0x7,0x5
	.DB  0x4,0xD0,0x7,0x4,0x0,0x1D,0xD0,0x7
	.DB  0x6,0x2,0xD0,0x7,0x5,0x0,0x1E,0xD0
	.DB  0x7,0x7,0x2,0xD0,0x7,0x6,0x0,0x1D
	.DB  0xD0,0x7,0x7,0x1F,0xD0,0x7,0x7,0x0
	.DB  0x1D,0xD0,0x7,0x8,0x1D,0xD0,0x7,0x8
	.DB  0x0,0x1E,0xD0,0x7,0x9,0x1C,0xD0,0x7
	.DB  0x9,0x0,0x1D,0xD0,0x7,0xA,0x1B,0xD0
	.DB  0x7,0xA,0x0,0x1E,0xD0,0x7,0xB,0x1A
	.DB  0xD0,0x7,0xB,0x0,0x1E,0xD0,0x7,0xC
	.DB  0x1A,0xD0,0x7,0xC,0x0,0x1D,0xD1,0x7
	.DB  0x1,0x18,0xD1,0x7,0x1,0x0,0x1E,0xD1
	.DB  0x7,0x2,0x17,0xD1,0x7,0x2,0x0,0x1E
	.DB  0xD1,0x7,0x3,0x19,0xD1,0x7,0x3,0x0
	.DB  0x1D,0xD1,0x7,0x4,0x17,0xD1,0x7,0x4
	.DB  0x0,0x1E,0xD1,0x7,0x5,0x17,0xD1,0x7
	.DB  0x4,0x1,0x1D,0xD1,0x7,0x6,0x15,0xD1
	.DB  0x7,0x5,0x0,0x1E,0xD1,0x7,0x7,0x15
	.DB  0xD1,0x7,0x6,0x0,0x1D,0xD1,0x7,0x8
	.DB  0x13,0xD1,0x7,0x7,0x0,0x1D,0xD1,0x7
	.DB  0x9,0x11,0xD1,0x7,0x8,0x0,0x1E,0xD1
	.DB  0x7,0xA,0x11,0xD1,0x7,0x9,0x0,0x1D
	.DB  0xD1,0x7,0xB,0xF,0xD1,0x7,0xA,0x0
	.DB  0x1E,0xD1,0x7,0xC,0xF,0xD1,0x7,0xB
	.DB  0x0,0x1D,0xD2,0x7,0x1,0xD,0xD1,0x7
	.DB  0xC,0x0,0x1E,0xD2,0x7,0x2,0xC,0xD2
	.DB  0x7,0x1,0x0,0x1E,0xD2,0x7,0x3,0xE
	.DB  0xD2,0x7,0x2,0x0,0x1E,0xD2,0x7,0x4
	.DB  0xD,0xD2,0x7,0x3,0x0,0x1D,0xD2,0x7
	.DB  0x5,0xC,0xD2,0x7,0x4,0x0,0x1E,0xD2
	.DB  0x7,0x6,0xB,0xD2,0x7,0x5,0x0,0x1D
	.DB  0xD2,0x7,0x7,0xA,0xD2,0x7,0x6,0x0
	.DB  0x1E,0xD2,0x7,0x8,0x9,0xD2,0x7,0x7
	.DB  0x0,0x1D,0xD2,0x7,0x9,0x7,0xD2,0x7
	.DB  0x8,0x0,0x1D,0xD2,0x7,0xA,0x6,0xD2
	.DB  0x7,0x9,0x0,0x1E,0xD2,0x7,0xB,0x5
	.DB  0xD2,0x7,0xA,0x0,0x1D,0xD2,0x7,0xC
	.DB  0x4,0xD2,0x7,0xB,0x0,0x1E,0xD3,0x7
	.DB  0x1,0x3,0xD2,0x7,0xC,0x0,0x1D,0xD3
	.DB  0x7,0x2,0x1,0xD3,0x7,0x1,0x0,0x1E
	.DB  0xD3,0x7,0x3,0x3,0xD3,0x7,0x2,0x0
	.DB  0x1E,0xD3,0x7,0x4,0x2,0xD3,0x7,0x3
	.DB  0x0,0x1D,0xD3,0x7,0x5,0x1,0xD3,0x7
	.DB  0x4,0x0,0x1E,0xD3,0x7,0x5,0x1F,0xD3
	.DB  0x7,0x5,0x0,0x1E,0xD3,0x7,0x6,0x1E
	.DB  0xD3,0x7,0x6,0x0,0x1D,0xD3,0x7,0x7
	.DB  0x1D,0xD3,0x7,0x7,0x0,0x1E,0xD3,0x7
	.DB  0x8,0x1C,0xD3,0x7,0x8,0x0,0x1D,0xD3
	.DB  0x7,0x9,0x1A,0xD3,0x7,0x9,0x0,0x1D
	.DB  0xD3,0x7,0xA,0x19,0xD3,0x7,0xA,0x0
	.DB  0x1E,0xD3,0x7,0xB,0x18,0xD3,0x7,0xB
	.DB  0x0,0x1D,0xD3,0x7,0xC,0x17,0xD3,0x7
	.DB  0xC,0x0,0x1E,0xD4,0x7,0x1,0x16,0xD4
	.DB  0x7,0x1,0x0,0x1D,0xD4,0x7,0x2,0x14
	.DB  0xD4,0x7,0x2,0x0,0x1E,0xD4,0x7,0x3
	.DB  0x15,0xD4,0x7,0x2,0x1,0x1D,0xD4,0x7
	.DB  0x4,0x13,0xD4,0x7,0x3,0x0,0x1E,0xD4
	.DB  0x7,0x5,0x13,0xD4,0x7,0x4,0x0,0x1E
	.DB  0xD4,0x7,0x6,0x12,0xD4,0x7,0x5,0x0
	.DB  0x1D,0xD4,0x7,0x7,0x11,0xD4,0x7,0x6
	.DB  0x0,0x1E,0xD4,0x7,0x8,0x10,0xD4,0x7
	.DB  0x7,0x0,0x1D,0xD4,0x7,0x9,0xE,0xD4
	.DB  0x7,0x8,0x0,0x1E,0xD4,0x7,0xA,0xE
	.DB  0xD4,0x7,0x9,0x0,0x1D,0xD4,0x7,0xB
	.DB  0xC,0xD4,0x7,0xA,0x0,0x1E,0xD4,0x7
	.DB  0xC,0xC,0xD4,0x7,0xB,0x0,0x1D,0xD5
	.DB  0x7,0x1,0xA,0xD4,0x7,0xC,0x0,0x1E
	.DB  0xD5,0x7,0x2,0x9,0xD5,0x7,0x1,0x0
	.DB  0x1D,0xD5,0x7,0x3,0xA,0xD5,0x7,0x2
	.DB  0x0,0x1E,0xD5,0x7,0x4,0x9,0xD5,0x7
	.DB  0x3,0x0,0x1D,0xD5,0x7,0x5,0x8,0xD5
	.DB  0x7,0x4,0x0,0x1E,0xD5,0x7,0x6,0x7
	.DB  0xD5,0x7,0x5,0x0,0x1D,0xD5,0x7,0x7
	.DB  0x6,0xD5,0x7,0x6,0x0,0x1E,0xD5,0x7
	.DB  0x8,0x5,0xD5,0x7,0x7,0x0,0x1E,0xD5
	.DB  0x7,0x9,0x4,0xD5,0x7,0x8,0x0,0x1D
	.DB  0xD5,0x7,0xA,0x3,0xD5,0x7,0x9,0x0
	.DB  0x1E,0xD5,0x7,0xB,0x2,0xD5,0x7,0xA
	.DB  0x0,0x1D,0xD5,0x7,0xC,0x1,0xD5,0x7
	.DB  0xB,0x0,0x1E,0xD5,0x7,0xC,0x1F,0xD5
	.DB  0x7,0xC,0x0,0x1D,0xD6,0x7,0x1,0x1D
	.DB  0xD6,0x7,0x1,0x0,0x1E,0xD6,0x7,0x2
	.DB  0x1C,0xD6,0x7,0x2,0x0,0x1D,0xD6,0x7
	.DB  0x3,0x1D,0xD6,0x7,0x3,0x0,0x1E,0xD6
	.DB  0x7,0x4,0x1C,0xD6,0x7,0x4,0x0,0x1D
	.DB  0xD6,0x7,0x5,0x1B,0xD6,0x7,0x5,0x0
	.DB  0x1D,0xD6,0x7,0x6,0x19,0xD6,0x7,0x6
	.DB  0x0,0x1E,0xD6,0x7,0x7,0x19,0xD6,0x7
	.DB  0x7,0x0,0x1E,0xD6,0x7,0x8,0x18,0xD6
	.DB  0x7,0x7,0x1,0x1D,0xD6,0x7,0x9,0x16
	.DB  0xD6,0x7,0x8,0x0,0x1E,0xD6,0x7,0xA
	.DB  0x16,0xD6,0x7,0x9,0x0,0x1E,0xD6,0x7
	.DB  0xB,0x15,0xD6,0x7,0xA,0x0,0x1D,0xD6
	.DB  0x7,0xC,0x14,0xD6,0x7,0xB,0x0,0x1E
	.DB  0xD7,0x7,0x1,0x13,0xD6,0x7,0xC,0x0
	.DB  0x1D,0xD7,0x7,0x2,0x11,0xD7,0x7,0x1
	.DB  0x0,0x1E,0xD7,0x7,0x3,0x13,0xD7,0x7
	.DB  0x2,0x0,0x1D,0xD7,0x7,0x4,0x11,0xD7
	.DB  0x7,0x3,0x0,0x1E,0xD7,0x7,0x5,0x11
	.DB  0xD7,0x7,0x4,0x0,0x1D,0xD7,0x7,0x6
	.DB  0xF,0xD7,0x7,0x5,0x0,0x1D,0xD7,0x7
	.DB  0x7,0xE,0xD7,0x7,0x6,0x0,0x1E,0xD7
	.DB  0x7,0x8,0xD,0xD7,0x7,0x7,0x0,0x1D
	.DB  0xD7,0x7,0x9,0xB,0xD7,0x7,0x8,0x0
	.DB  0x1E,0xD7,0x7,0xA,0xB,0xD7,0x7,0x9
	.DB  0x0,0x1E,0xD7,0x7,0xB,0xA,0xD7,0x7
	.DB  0xA,0x0,0x1E,0xD7,0x7,0xC,0xA,0xD7
	.DB  0x7,0xB,0x0,0x1D,0xD8,0x7,0x1,0x8
	.DB  0xD7,0x7,0xC,0x0,0x1E,0xD8,0x7,0x2
	.DB  0x7,0xD8,0x7,0x1,0x0,0x1E,0xD8,0x7
	.DB  0x3,0x8,0xD8,0x7,0x2,0x0,0x1D,0xD8
	.DB  0x7,0x4,0x6,0xD8,0x7,0x3,0x0,0x1D
	.DB  0xD8,0x7,0x5,0x5,0xD8,0x7,0x4,0x0
	.DB  0x1E,0xD8,0x7,0x6,0x4,0xD8,0x7,0x5
	.DB  0x0,0x1D,0xD8,0x7,0x7,0x3,0xD8,0x7
	.DB  0x6,0x0,0x1D,0xD8,0x7,0x8,0x1,0xD8
	.DB  0x7,0x7,0x0,0x1E,0xD8,0x7,0x8,0x1F
	.DB  0xD8,0x7,0x8,0x0,0x1D,0xD8,0x7,0x9
	.DB  0x1D,0xD8,0x7,0x9,0x0,0x1E,0xD8,0x7
	.DB  0xA,0x1D,0xD8,0x7,0xA,0x0,0x1D,0xD8
	.DB  0x7,0xB,0x1B,0xD8,0x7,0xB,0x0,0x1E
	.DB  0xD8,0x7,0xC,0x1B,0xD8,0x7,0xC,0x0
	.DB  0x1E,0xD9,0x7,0x1,0x1A,0xD9,0x7,0x1
	.DB  0x0,0x1E,0xD9,0x7,0x2,0x19,0xD9,0x7
	.DB  0x2,0x0,0x1D,0xD9,0x7,0x3,0x1A,0xD9
	.DB  0x7,0x3,0x0,0x1E,0xD9,0x7,0x4,0x19
	.DB  0xD9,0x7,0x4,0x0,0x1D,0xD9,0x7,0x5
	.DB  0x18,0xD9,0x7,0x5,0x0,0x1E,0xD9,0x7
	.DB  0x6,0x17,0xD9,0x7,0x5,0x1,0x1D,0xD9
	.DB  0x7,0x7,0x16,0xD9,0x7,0x6,0x0,0x1D
	.DB  0xD9,0x7,0x8,0x14,0xD9,0x7,0x7,0x0
	.DB  0x1E,0xD9,0x7,0x9,0x13,0xD9,0x7,0x8
	.DB  0x0,0x1D,0xD9,0x7,0xA,0x12,0xD9,0x7
	.DB  0x9,0x0,0x1E,0xD9,0x7,0xB,0x11,0xD9
	.DB  0x7,0xA,0x0,0x1D,0xD9,0x7,0xC,0x10
	.DB  0xD9,0x7,0xB,0x0,0x1E,0xDA,0x7,0x1
	.DB  0xF,0xD9,0x7,0xC,0x0,0x1E,0xDA,0x7
	.DB  0x2,0xE,0xDA,0x7,0x1,0x0,0x1E,0xDA
	.DB  0x7,0x3,0x10,0xDA,0x7,0x2,0x0,0x1D
	.DB  0xDA,0x7,0x4,0xE,0xDA,0x7,0x3,0x0
	.DB  0x1E,0xDA,0x7,0x5,0xE,0xDA,0x7,0x4
	.DB  0x0,0x1D,0xDA,0x7,0x6,0xC,0xDA,0x7
	.DB  0x5,0x0,0x1E,0xDA,0x7,0x7,0xC,0xDA
	.DB  0x7,0x6,0x0,0x1D,0xDA,0x7,0x8,0xA
	.DB  0xDA,0x7,0x7,0x0,0x1D,0xDA,0x7,0x9
	.DB  0x8,0xDA,0x7,0x8,0x0,0x1E,0xDA,0x7
	.DB  0xA,0x8,0xDA,0x7,0x9,0x0,0x1D,0xDA
	.DB  0x7,0xB,0x6,0xDA,0x7,0xA,0x0,0x1E
	.DB  0xDA,0x7,0xC,0x6,0xDA,0x7,0xB,0x0
	.DB  0x1D,0xDB,0x7,0x1,0x4,0xDA,0x7,0xC
	.DB  0x0,0x1E,0xDB,0x7,0x2,0x3,0xDB,0x7
	.DB  0x1,0x0,0x1E,0xDB,0x7,0x3,0x5,0xDB
	.DB  0x7,0x2,0x0,0x1D,0xDB,0x7,0x4,0x3
	.DB  0xDB,0x7,0x3,0x0,0x1E,0xDB,0x7,0x5
	.DB  0x3,0xDB,0x7,0x4,0x0,0x1E,0xDB,0x7
	.DB  0x6,0x2,0xDB,0x7,0x5,0x0,0x1D,0xDB
	.DB  0x7,0x7,0x1,0xDB,0x7,0x6,0x0,0x1E
	.DB  0xDB,0x7,0x7,0x1F,0xDB,0x7,0x7,0x0
	.DB  0x1D,0xDB,0x7,0x8,0x1D,0xDB,0x7,0x8
	.DB  0x0,0x1D,0xDB,0x7,0x9,0x1B,0xDB,0x7
	.DB  0x9,0x0,0x1E,0xDB,0x7,0xA,0x1B,0xDB
	.DB  0x7,0xA,0x0,0x1D,0xDB,0x7,0xB,0x19
	.DB  0xDB,0x7,0xB,0x0,0x1E,0xDB,0x7,0xC
	.DB  0x19,0xDB,0x7,0xC,0x0,0x1D,0xDC,0x7
	.DB  0x1,0x17,0xDC,0x7,0x1,0x0,0x1E,0xDC
	.DB  0x7,0x2,0x16,0xDC,0x7,0x2,0x0,0x1D
	.DB  0xDC,0x7,0x3,0x16,0xDC,0x7,0x3,0x0
	.DB  0x1E,0xDC,0x7,0x4,0x15,0xDC,0x7,0x4
	.DB  0x0,0x1E,0xDC,0x7,0x5,0x15,0xDC,0x7
	.DB  0x4,0x1,0x1D,0xDC,0x7,0x6,0x13,0xDC
	.DB  0x7,0x5,0x0,0x1E,0xDC,0x7,0x7,0x13
	.DB  0xDC,0x7,0x6,0x0,0x1D,0xDC,0x7,0x8
	.DB  0x11,0xDC,0x7,0x7,0x0,0x1E,0xDC,0x7
	.DB  0x9,0x10,0xDC,0x7,0x8,0x0,0x1D,0xDC
	.DB  0x7,0xA,0xF,0xDC,0x7,0x9,0x0,0x1E
	.DB  0xDC,0x7,0xB,0xE,0xDC,0x7,0xA,0x0
	.DB  0x1D,0xDC,0x7,0xC,0xD,0xDC,0x7,0xB
	.DB  0x0,0x1E,0xDD,0x7,0x1,0xC,0xDC,0x7
	.DB  0xC,0x0,0x1D,0xDD,0x7,0x2,0xA,0xDD
	.DB  0x7,0x1,0x0,0x1E,0xDD,0x7,0x3,0xC
	.DB  0xDD,0x7,0x2,0x0,0x1D,0xDD,0x7,0x4
	.DB  0xA,0xDD,0x7,0x3,0x0,0x1E,0xDD,0x7
	.DB  0x5,0xA,0xDD,0x7,0x4,0x0,0x1D,0xDD
	.DB  0x7,0x6,0x8,0xDD,0x7,0x5,0x0,0x1E
	.DB  0xDD,0x7,0x7,0x8,0xDD,0x7,0x6,0x0
	.DB  0x1E,0xDD,0x7,0x8,0x7,0xDD,0x7,0x7
	.DB  0x0,0x1D,0xDD,0x7,0x9,0x5,0xDD,0x7
	.DB  0x8,0x0,0x1E,0xDD,0x7,0xA,0x5,0xDD
	.DB  0x7,0x9,0x0,0x1D,0xDD,0x7,0xB,0x3
	.DB  0xDD,0x7,0xA,0x0,0x1E,0xDD,0x7,0xC
	.DB  0x3,0xDD,0x7,0xB,0x0,0x1D,0xDE,0x7
	.DB  0x1,0x1,0xDD,0x7,0xC,0x0,0x1E,0xDE
	.DB  0x7,0x1,0x1F,0xDE,0x7,0x1,0x0,0x1D
	.DB  0xDE,0x7,0x3,0x1,0xDE,0x7,0x2,0x0
	.DB  0x1E,0xDE,0x7,0x3,0x1F,0xDE,0x7,0x3
	.DB  0x0,0x1D,0xDE,0x7,0x4,0x1D,0xDE,0x7
	.DB  0x4,0x0,0x1E,0xDE,0x7,0x5,0x1D,0xDE
	.DB  0x7,0x5,0x0,0x1D,0xDE,0x7,0x6,0x1B
	.DB  0xDE,0x7,0x6,0x0,0x1E,0xDE,0x7,0x7
	.DB  0x1B,0xDE,0x7,0x7,0x0,0x1D,0xDE,0x7
	.DB  0x8,0x19,0xDE,0x7,0x8,0x0,0x1E,0xDE
	.DB  0x7,0x9,0x18,0xDE,0x7,0x9,0x0,0x1E
	.DB  0xDE,0x7,0xA,0x18,0xDE,0x7,0x9,0x1
	.DB  0x1D,0xDE,0x7,0xB,0x16,0xDE,0x7,0xA
	.DB  0x0,0x1E,0xDE,0x7,0xC,0x16,0xDE,0x7
	.DB  0xB,0x0,0x1D,0xDF,0x7,0x1,0x14,0xDE
	.DB  0x7,0xC,0x0,0x1E,0xDF,0x7,0x2,0x13
	.DB  0xDF,0x7,0x1,0x0,0x1D,0xDF,0x7,0x3
	.DB  0x14,0xDF,0x7,0x2,0x0,0x1E,0xDF,0x7
	.DB  0x4,0x13,0xDF,0x7,0x3,0x0,0x1D,0xDF
	.DB  0x7,0x5,0x12,0xDF,0x7,0x4,0x0,0x1D
	.DB  0xDF,0x7,0x6,0x10,0xDF,0x7,0x5,0x0
	.DB  0x1E,0xDF,0x7,0x7,0x10,0xDF,0x7,0x6
	.DB  0x0,0x1D,0xDF,0x7,0x8,0xE,0xDF,0x7
	.DB  0x7,0x0,0x1E,0xDF,0x7,0x9,0xD,0xDF
	.DB  0x7,0x8,0x0,0x1E,0xDF,0x7,0xA,0xD
	.DB  0xDF,0x7,0x9,0x0,0x1E,0xDF,0x7,0xB
	.DB  0xC,0xDF,0x7,0xA,0x0,0x1D,0xDF,0x7
	.DB  0xC,0xB,0xDF,0x7,0xB,0x0,0x1E,0xE0
	.DB  0x7,0x1,0xA,0xDF,0x7,0xC,0x0,0x1D
	.DB  0xE0,0x7,0x2,0x8,0xE0,0x7,0x1,0x0
	.DB  0x1E,0xE0,0x7,0x3,0x9,0xE0,0x7,0x2
	.DB  0x0,0x1D,0xE0,0x7,0x4,0x7,0xE0,0x7
	.DB  0x3,0x0,0x1E,0xE0,0x7,0x5,0x7,0xE0
	.DB  0x7,0x4,0x0,0x1D,0xE0,0x7,0x6,0x5
	.DB  0xE0,0x7,0x5,0x0,0x1D,0xE0,0x7,0x7
	.DB  0x4,0xE0,0x7,0x6,0x0,0x1E,0xE0,0x7
	.DB  0x8,0x3,0xE0,0x7,0x7,0x0,0x1D,0xE0
	.DB  0x7,0x9,0x1,0xE0,0x7,0x8,0x0,0x1E
	.DB  0xE0,0x7,0xA,0x1,0xE0,0x7,0x9,0x0
	.DB  0x1E,0xE0,0x7,0xA,0x1F,0xE0,0x7,0xA
	.DB  0x0,0x1D,0xE0,0x7,0xB,0x1D,0xE0,0x7
	.DB  0xB,0x0,0x1E,0xE0,0x7,0xC,0x1D,0xE0
	.DB  0x7,0xC,0x0,0x1E,0xE1,0x7,0x1,0x1C
	.DB  0xE1,0x7,0x1,0x0,0x1D,0xE1,0x7,0x2
	.DB  0x1A,0xE1,0x7,0x2,0x0,0x1E,0xE1,0x7
	.DB  0x3,0x1C,0xE1,0x7,0x3,0x0,0x1D,0xE1
	.DB  0x7,0x4,0x1A,0xE1,0x7,0x4,0x0,0x1E
	.DB  0xE1,0x7,0x5,0x1A,0xE1,0x7,0x5,0x0
	.DB  0x1D,0xE1,0x7,0x6,0x18,0xE1,0x7,0x6
	.DB  0x0,0x1D,0xE1,0x7,0x7,0x17,0xE1,0x7
	.DB  0x6,0x1,0x1E,0xE1,0x7,0x8,0x16,0xE1
	.DB  0x7,0x7,0x0,0x1D,0xE1,0x7,0x9,0x14
	.DB  0xE1,0x7,0x8,0x0,0x1E,0xE1,0x7,0xA
	.DB  0x14,0xE1,0x7,0x9,0x0,0x1D,0xE1,0x7
	.DB  0xB,0x12,0xE1,0x7,0xA,0x0,0x1E,0xE1
	.DB  0x7,0xC,0x12,0xE1,0x7,0xB,0x0,0x1E
	.DB  0xE2,0x7,0x1,0x11,0xE1,0x7,0xC,0x0
	.DB  0x1E,0xE2,0x7,0x2,0x10,0xE2,0x7,0x1
	.DB  0x0,0x1D,0xE2,0x7,0x3,0x11,0xE2,0x7
	.DB  0x2,0x0,0x1E,0xE2,0x7,0x4,0x10,0xE2
	.DB  0x7,0x3,0x0,0x1D,0xE2,0x7,0x5,0xF
	.DB  0xE2,0x7,0x4,0x0,0x1E,0xE2,0x7,0x6
	.DB  0xE,0xE2,0x7,0x5,0x0,0x1D,0xE2,0x7
	.DB  0x7,0xD,0xE2,0x7,0x6,0x0,0x1D,0xE2
	.DB  0x7,0x8,0xB,0xE2,0x7,0x7,0x0,0x1E
	.DB  0xE2,0x7,0x9,0xA,0xE2,0x7,0x8,0x0
	.DB  0x1D,0xE2,0x7,0xA,0x9,0xE2,0x7,0x9
	.DB  0x0,0x1D,0xE2,0x7,0xB,0x7,0xE2,0x7
	.DB  0xA,0x0,0x1E,0xE2,0x7,0xC,0x7,0xE2
	.DB  0x7,0xB,0x0,0x1E,0xE3,0x7,0x1,0x6
	.DB  0xE2,0x7,0xC,0x0,0x1E,0xE3,0x7,0x2
	.DB  0x5,0xE3,0x7,0x1,0x0,0x1D,0xE3,0x7
	.DB  0x3,0x6,0xE3,0x7,0x2,0x0,0x1E,0xE3
	.DB  0x7,0x4,0x5,0xE3,0x7,0x3,0x0,0x1E
	.DB  0xE3,0x7,0x5,0x5,0xE3,0x7,0x4,0x0
	.DB  0x1D,0xE3,0x7,0x6,0x3,0xE3,0x7,0x5
	.DB  0x0,0x1E,0xE3,0x7,0x7,0x3,0xE3,0x7
	.DB  0x6,0x0,0x1D,0xE3,0x7,0x8,0x1,0xE3
	.DB  0x7,0x7,0x0,0x1D,0xE3,0x7,0x8,0x1E
	.DB  0xE3,0x7,0x8,0x0,0x1E,0xE3,0x7,0x9
	.DB  0x1D,0xE3,0x7,0x9,0x0,0x1D,0xE3,0x7
	.DB  0xA,0x1C,0xE3,0x7,0xA,0x0,0x1D,0xE3
	.DB  0x7,0xB,0x1A,0xE3,0x7,0xB,0x0,0x1E
	.DB  0xE3,0x7,0xC,0x1A,0xE3,0x7,0xC,0x0
	.DB  0x1E,0xE4,0x7,0x1,0x19,0xE4,0x7,0x1
	.DB  0x0,0x1D,0xE4,0x7,0x2,0x17,0xE4,0x7
	.DB  0x2,0x0,0x1E,0xE4,0x7,0x3,0x18,0xE4
	.DB  0x7,0x3,0x0,0x1E,0xE4,0x7,0x4,0x17
	.DB  0xE4,0x7,0x4,0x0,0x1E,0xE4,0x7,0x5
	.DB  0x17,0xE4,0x7,0x4,0x1,0x1D,0xE4,0x7
	.DB  0x6,0x15,0xE4,0x7,0x5,0x0,0x1E,0xE4
	.DB  0x7,0x7,0x15,0xE4,0x7,0x6,0x0,0x1D
	.DB  0xE4,0x7,0x8,0x13,0xE4,0x7,0x7,0x0
	.DB  0x1D,0xE4,0x7,0x9,0x11,0xE4,0x7,0x8
	.DB  0x0,0x1E,0xE4,0x7,0xA,0x11,0xE4,0x7
	.DB  0x9,0x0,0x1D,0xE4,0x7,0xB,0xF,0xE4
	.DB  0x7,0xA,0x0,0x1D,0xE4,0x7,0xC,0xE
	.DB  0xE4,0x7,0xB,0x0,0x1E,0xE5,0x7,0x1
	.DB  0xD,0xE4,0x7,0xC,0x0,0x1E,0xE5,0x7
	.DB  0x2,0xC,0xE5,0x7,0x1,0x0,0x1D,0xE5
	.DB  0x7,0x3,0xD,0xE5,0x7,0x2,0x0,0x1E
	.DB  0xE5,0x7,0x4,0xC,0xE5,0x7,0x3,0x0
	.DB  0x1E,0xE5,0x7,0x5,0xC,0xE5,0x7,0x4
	.DB  0x0,0x1D,0xE5,0x7,0x6,0xA,0xE5,0x7
	.DB  0x5,0x0,0x1E,0xE5,0x7,0x7,0xA,0xE5
	.DB  0x7,0x6,0x0,0x1D,0xE5,0x7,0x8,0x8
	.DB  0xE5,0x7,0x7,0x0,0x1E,0xE5,0x7,0x9
	.DB  0x7,0xE5,0x7,0x8,0x0,0x1D,0xE5,0x7
	.DB  0xA,0x6,0xE5,0x7,0x9,0x0,0x1E,0xE5
	.DB  0x7,0xB,0x5,0xE5,0x7,0xA,0x0,0x1D
	.DB  0xE5,0x7,0xC,0x4,0xE5,0x7,0xB,0x0
	.DB  0x1E,0xE6,0x7,0x1,0x3,0xE5,0x7,0xC
	.DB  0x0,0x1D,0xE6,0x7,0x2,0x1,0xE6,0x7
	.DB  0x1,0x0,0x1E,0xE6,0x7,0x3,0x3,0xE6
	.DB  0x7,0x2,0x0,0x1D,0xE6,0x7,0x4,0x1
	.DB  0xE6,0x7,0x3,0x0,0x1E,0xE6,0x7,0x5
	.DB  0x1,0xE6,0x7,0x4,0x0,0x1D,0xE6,0x7
	.DB  0x5,0x1E,0xE6,0x7,0x5,0x0,0x1E,0xE6
	.DB  0x7,0x6,0x1D,0xE6,0x7,0x6,0x0,0x1E
	.DB  0xE6,0x7,0x7,0x1D,0xE6,0x7,0x7,0x0
	.DB  0x1D,0xE6,0x7,0x8,0x1B,0xE6,0x7,0x8
	.DB  0x0,0x1E,0xE6,0x7,0x9,0x1A,0xE6,0x7
	.DB  0x9,0x0,0x1D,0xE6,0x7,0xA,0x19,0xE6
	.DB  0x7,0xA,0x0,0x1E,0xE6,0x7,0xB,0x18
	.DB  0xE6,0x7,0xB,0x0,0x1D,0xE6,0x7,0xC
	.DB  0x17,0xE6,0x7,0xC,0x0,0x1E,0xE7,0x7
	.DB  0x1,0x16,0xE7,0x7,0x1,0x0,0x1D,0xE7
	.DB  0x7,0x2,0x14,0xE7,0x7,0x2,0x0,0x1E
	.DB  0xE7,0x7,0x3,0x16,0xE7,0x7,0x2,0x1
	.DB  0x1D,0xE7,0x7,0x4,0x14,0xE7,0x7,0x3
	.DB  0x0,0x1D,0xE7,0x7,0x5,0x13,0xE7,0x7
	.DB  0x4,0x0,0x1E,0xE7,0x7,0x6,0x12,0xE7
	.DB  0x7,0x5,0x0,0x1E,0xE7,0x7,0x7,0x12
	.DB  0xE7,0x7,0x6,0x0,0x1D,0xE7,0x7,0x8
	.DB  0x10,0xE7,0x7,0x7,0x0,0x1E,0xE7,0x7
	.DB  0x9,0xF,0xE7,0x7,0x8,0x0,0x1E,0xE7
	.DB  0x7,0xA,0xF,0xE7,0x7,0x9,0x0,0x1D
	.DB  0xE7,0x7,0xB,0xD,0xE7,0x7,0xA,0x0
	.DB  0x1E,0xE7,0x7,0xC,0xD,0xE7,0x7,0xB
	.DB  0x0,0x1D,0xE8,0x7,0x1,0xB,0xE7,0x7
	.DB  0xC,0x0,0x1E,0xE8,0x7,0x2,0xA,0xE8
	.DB  0x7,0x1,0x0,0x1D,0xE8,0x7,0x3,0xA
	.DB  0xE8,0x7,0x2,0x0,0x1E,0xE8,0x7,0x4
	.DB  0x9,0xE8,0x7,0x3,0x0,0x1D,0xE8,0x7
	.DB  0x5,0x8,0xE8,0x7,0x4,0x0,0x1D,0xE8
	.DB  0x7,0x6,0x6,0xE8,0x7,0x5,0x0,0x1E
	.DB  0xE8,0x7,0x7,0x6,0xE8,0x7,0x6,0x0
	.DB  0x1D,0xE8,0x7,0x8,0x4,0xE8,0x7,0x7
	.DB  0x0,0x1E,0xE8,0x7,0x9,0x3,0xE8,0x7
	.DB  0x8,0x0,0x1E,0xE8,0x7,0xA,0x3,0xE8
	.DB  0x7,0x9,0x0,0x1D,0xE8,0x7,0xB,0x1
	.DB  0xE8,0x7,0xA,0x0,0x1E,0xE8,0x7,0xC
	.DB  0x1,0xE8,0x7,0xB,0x0,0x1E,0xE8,0x7
	.DB  0xC,0x1F,0xE8,0x7,0xC,0x0,0x1D,0xE9
	.DB  0x7,0x1,0x1D,0xE9,0x7,0x1,0x0,0x1E
	.DB  0xE9,0x7,0x2,0x1C,0xE9,0x7,0x2,0x0
	.DB  0x1D,0xE9,0x7,0x3,0x1D,0xE9,0x7,0x3
	.DB  0x0,0x1E,0xE9,0x7,0x4,0x1C,0xE9,0x7
	.DB  0x4,0x0,0x1D,0xE9,0x7,0x5,0x1B,0xE9
	.DB  0x7,0x5,0x0,0x1D,0xE9,0x7,0x6,0x19
	.DB  0xE9,0x7,0x6,0x0,0x1E,0xE9,0x7,0x7
	.DB  0x19,0xE9,0x7,0x6,0x1,0x1D,0xE9,0x7
	.DB  0x8,0x17,0xE9,0x7,0x7,0x0,0x1E,0xE9
	.DB  0x7,0x9,0x16,0xE9,0x7,0x8,0x0,0x1D
	.DB  0xE9,0x7,0xA,0x15,0xE9,0x7,0x9,0x0
	.DB  0x1E,0xE9,0x7,0xB,0x14,0xE9,0x7,0xA
	.DB  0x0,0x1E,0xE9,0x7,0xC,0x14,0xE9,0x7
	.DB  0xB,0x0,0x1E,0xEA,0x7,0x1,0x13,0xE9
	.DB  0x7,0xC,0x0,0x1D,0xEA,0x7,0x2,0x11
	.DB  0xEA,0x7,0x1,0x0,0x1E,0xEA,0x7,0x3
	.DB  0x13,0xEA,0x7,0x2,0x0,0x1D,0xEA,0x7
	.DB  0x4,0x11,0xEA,0x7,0x3,0x0,0x1E,0xEA
	.DB  0x7,0x5,0x11,0xEA,0x7,0x4,0x0,0x1D
	.DB  0xEA,0x7,0x6,0xF,0xEA,0x7,0x5,0x0
	.DB  0x1D,0xEA,0x7,0x7,0xE,0xEA,0x7,0x6
	.DB  0x0,0x1E,0xEA,0x7,0x8,0xD,0xEA,0x7
	.DB  0x7,0x0,0x1D,0xEA,0x7,0x9,0xB,0xEA
	.DB  0x7,0x8,0x0,0x1D,0xEA,0x7,0xA,0xA
	.DB  0xEA,0x7,0x9,0x0,0x1E,0xEA,0x7,0xB
	.DB  0x9,0xEA,0x7,0xA,0x0,0x1E,0xEA,0x7
	.DB  0xC,0x9,0xEA,0x7,0xB,0x0,0x1E,0xEB
	.DB  0x7,0x1,0x8,0xEA,0x7,0xC,0x0,0x1D
	.DB  0xEB,0x7,0x2,0x6,0xEB,0x7,0x1,0x0
	.DB  0x1E,0xEB,0x7,0x3,0x8,0xEB,0x7,0x2
	.DB  0x0,0x1E,0xEB,0x7,0x4,0x7,0xEB,0x7
	.DB  0x3,0x0,0x1D,0xEB,0x7,0x5,0x6,0xEB
	.DB  0x7,0x4,0x0,0x1E,0xEB,0x7,0x6,0x5
	.DB  0xEB,0x7,0x5,0x0,0x1D,0xEB,0x7,0x7
	.DB  0x4,0xEB,0x7,0x6,0x0,0x1D,0xEB,0x7
	.DB  0x8,0x2,0xEB,0x7,0x7,0x0,0x1E,0xEB
	.DB  0x7,0x9,0x1,0xEB,0x7,0x8,0x0,0x1D
	.DB  0xEB,0x7,0x9,0x1E,0xEB,0x7,0x9,0x0
	.DB  0x1D,0xEB,0x7,0xA,0x1D,0xEB,0x7,0xA
	.DB  0x0,0x1E,0xEB,0x7,0xB,0x1C,0xEB,0x7
	.DB  0xB,0x0,0x1E,0xEB,0x7,0xC,0x1C,0xEB
	.DB  0x7,0xC,0x0,0x1D,0xEC,0x7,0x1,0x1A
	.DB  0xEC,0x7,0x1,0x0,0x1E,0xEC,0x7,0x2
	.DB  0x19,0xEC,0x7,0x2,0x0,0x1E,0xEC,0x7
	.DB  0x3,0x1A,0xEC,0x7,0x3,0x0,0x1E,0xEC
	.DB  0x7,0x4,0x19,0xEC,0x7,0x4,0x0,0x1D
	.DB  0xEC,0x7,0x5,0x18,0xEC,0x7,0x5,0x0
	.DB  0x1E,0xEC,0x7,0x6,0x17,0xEC,0x7,0x5
	.DB  0x1,0x1D,0xEC,0x7,0x7,0x16,0xEC,0x7
	.DB  0x6,0x0,0x1D,0xEC,0x7,0x8,0x14,0xEC
	.DB  0x7,0x7,0x0,0x1E,0xEC,0x7,0x9,0x13
	.DB  0xEC,0x7,0x8,0x0,0x1D,0xEC,0x7,0xA
	.DB  0x12,0xEC,0x7,0x9,0x0,0x1D,0xEC,0x7
	.DB  0xB,0x10,0xEC,0x7,0xA,0x0,0x1E,0xEC
	.DB  0x7,0xC,0x10,0xEC,0x7,0xB,0x0,0x1E
	.DB  0xED,0x7,0x1,0xF,0xEC,0x7,0xC,0x0
	.DB  0x1D,0xED,0x7,0x2,0xD,0xED,0x7,0x1
	.DB  0x0,0x1E,0xED,0x7,0x3,0xF,0xED,0x7
	.DB  0x2,0x0,0x1E,0xED,0x7,0x4,0xE,0xED
	.DB  0x7,0x3,0x0,0x1D,0xED,0x7,0x5,0xD
	.DB  0xED,0x7,0x4,0x0,0x1E,0xED,0x7,0x6
	.DB  0xC,0xED,0x7,0x5,0x0,0x1D,0xED,0x7
	.DB  0x7,0xB,0xED,0x7,0x6,0x0,0x1E,0xED
	.DB  0x7,0x8,0xA,0xED,0x7,0x7,0x0,0x1D
	.DB  0xED,0x7,0x9,0x8,0xED,0x7,0x8,0x0
	.DB  0x1E,0xED,0x7,0xA,0x8,0xED,0x7,0x9
	.DB  0x0,0x1D,0xED,0x7,0xB,0x6,0xED,0x7
	.DB  0xA,0x0,0x1D,0xED,0x7,0xC,0x5,0xED
	.DB  0x7,0xB,0x0,0x1E,0xEE,0x7,0x1,0x4
	.DB  0xED,0x7,0xC,0x0,0x1D,0xEE,0x7,0x2
	.DB  0x2,0xEE,0x7,0x1,0x0,0x1E,0xEE,0x7
	.DB  0x3,0x4,0xEE,0x7,0x2,0x0,0x1E,0xEE
	.DB  0x7,0x4,0x3,0xEE,0x7,0x3,0x0,0x1D
	.DB  0xEE,0x7,0x5,0x2,0xEE,0x7,0x4,0x0
	.DB  0x1E,0xEE,0x7,0x6,0x1,0xEE,0x7,0x5
	.DB  0x0,0x1E,0xEE,0x7,0x7,0x1,0xEE,0x7
	.DB  0x6,0x0,0x1D,0xEE,0x7,0x7,0x1E,0xEE
	.DB  0x7,0x7,0x0,0x1E,0xEE,0x7,0x8,0x1D
	.DB  0xEE,0x7,0x8,0x0,0x1D,0xEE,0x7,0x9
	.DB  0x1B,0xEE,0x7,0x9,0x0,0x1E,0xEE,0x7
	.DB  0xA,0x1B,0xEE,0x7,0xA,0x0,0x1D,0xEE
	.DB  0x7,0xB,0x19,0xEE,0x7,0xB,0x0,0x1E
	.DB  0xEE,0x7,0xC,0x19,0xEE,0x7,0xC,0x0
	.DB  0x1D,0xEF,0x7,0x1,0x17,0xEF,0x7,0x1
	.DB  0x0,0x1D,0xEF,0x7,0x2,0x15,0xEF,0x7
	.DB  0x2,0x0,0x1E,0xEF,0x7,0x3,0x17,0xEF
	.DB  0x7,0x3,0x0,0x1D,0xEF,0x7,0x4,0x15
	.DB  0xEF,0x7,0x3,0x1,0x1E,0xEF,0x7,0x5
	.DB  0x15,0xEF,0x7,0x4,0x0,0x1E,0xEF,0x7
	.DB  0x6,0x14,0xEF,0x7,0x5,0x0,0x1D,0xEF
	.DB  0x7,0x7,0x13,0xEF,0x7,0x6,0x0,0x1E
	.DB  0xEF,0x7,0x8,0x12,0xEF,0x7,0x7,0x0
	.DB  0x1E,0xEF,0x7,0x9,0x11,0xEF,0x7,0x8
	.DB  0x0,0x1D,0xEF,0x7,0xA,0x10,0xEF,0x7
	.DB  0x9,0x0,0x1E,0xEF,0x7,0xB,0xF,0xEF
	.DB  0x7,0xA,0x0,0x1D,0xEF,0x7,0xC,0xE
	.DB  0xEF,0x7,0xB,0x0,0x1E,0xF0,0x7,0x1
	.DB  0xD,0xEF,0x7,0xC,0x0,0x1D,0xF0,0x7
	.DB  0x2,0xB,0xF0,0x7,0x1,0x0,0x1D,0xF0
	.DB  0x7,0x3,0xB,0xF0,0x7,0x2,0x0,0x1E
	.DB  0xF0,0x7,0x4,0xA,0xF0,0x7,0x3,0x0
	.DB  0x1D,0xF0,0x7,0x5,0x9,0xF0,0x7,0x4
	.DB  0x0,0x1E,0xF0,0x7,0x6,0x8,0xF0,0x7
	.DB  0x5,0x0,0x1D,0xF0,0x7,0x7,0x7,0xF0
	.DB  0x7,0x6,0x0,0x1E,0xF0,0x7,0x8,0x6
	.DB  0xF0,0x7,0x7,0x0,0x1E,0xF0,0x7,0x9
	.DB  0x5,0xF0,0x7,0x8,0x0,0x1D,0xF0,0x7
	.DB  0xA,0x4,0xF0,0x7,0x9,0x0,0x1E,0xF0
	.DB  0x7,0xB,0x3,0xF0,0x7,0xA,0x0,0x1E
	.DB  0xF0,0x7,0xC,0x3,0xF0,0x7,0xB,0x0
	.DB  0x1D,0xF1,0x7,0x1,0x1,0xF0,0x7,0xC
	.DB  0x0,0x1E,0xF1,0x7,0x1,0x1F,0xF1,0x7
	.DB  0x1,0x0,0x1D,0xF1,0x7,0x3,0x1,0xF1
	.DB  0x7,0x2,0x0,0x1E,0xF1,0x7,0x3,0x1F
	.DB  0xF1,0x7,0x3,0x0,0x1D,0xF1,0x7,0x4
	.DB  0x1D,0xF1,0x7,0x4,0x0,0x1D,0xF1,0x7
	.DB  0x5,0x1C,0xF1,0x7,0x5,0x0,0x1E,0xF1
	.DB  0x7,0x6,0x1B,0xF1,0x7,0x6,0x0,0x1D
	.DB  0xF1,0x7,0x7,0x1A,0xF1,0x7,0x7,0x0
	.DB  0x1E,0xF1,0x7,0x8,0x19,0xF1,0x7,0x8
	.DB  0x0,0x1D,0xF1,0x7,0x9,0x17,0xF1,0x7
	.DB  0x9,0x0,0x1E,0xF1,0x7,0xA,0x17,0xF1
	.DB  0x7,0xA,0x0,0x1E,0xF1,0x7,0xB,0x16
	.DB  0xF1,0x7,0xB,0x0,0x1E,0xF1,0x7,0xC
	.DB  0x16,0xF1,0x7,0xB,0x1,0x1D,0xF2,0x7
	.DB  0x1,0x14,0xF1,0x7,0xC,0x0,0x1E,0xF2
	.DB  0x7,0x2,0x13,0xF2,0x7,0x1,0x0,0x1D
	.DB  0xF2,0x7,0x3,0x14,0xF2,0x7,0x2,0x0
	.DB  0x1E,0xF2,0x7,0x4,0x13,0xF2,0x7,0x3
	.DB  0x0,0x1D,0xF2,0x7,0x5,0x12,0xF2,0x7
	.DB  0x4,0x0,0x1D,0xF2,0x7,0x6,0x10,0xF2
	.DB  0x7,0x5,0x0,0x1E,0xF2,0x7,0x7,0x10
	.DB  0xF2,0x7,0x6,0x0,0x1D,0xF2,0x7,0x8
	.DB  0xE,0xF2,0x7,0x7,0x0,0x1D,0xF2,0x7
	.DB  0x9,0xC,0xF2,0x7,0x8,0x0,0x1E,0xF2
	.DB  0x7,0xA,0xC,0xF2,0x7,0x9,0x0,0x1E
	.DB  0xF2,0x7,0xB,0xB,0xF2,0x7,0xA,0x0
	.DB  0x1E,0xF2,0x7,0xC,0xB,0xF2,0x7,0xB
	.DB  0x0,0x1D,0xF3,0x7,0x1,0x9,0xF2,0x7
	.DB  0xC,0x0,0x1E,0xF3,0x7,0x2,0x8,0xF3
	.DB  0x7,0x1,0x0,0x1E,0xF3,0x7,0x3,0xA
	.DB  0xF3,0x7,0x2,0x0,0x1D,0xF3,0x7,0x4
	.DB  0x8,0xF3,0x7,0x3,0x0,0x1E,0xF3,0x7
	.DB  0x5,0x8,0xF3,0x7,0x4,0x0,0x1D,0xF3
	.DB  0x7,0x6,0x6,0xF3,0x7,0x5,0x0,0x1D
	.DB  0xF3,0x7,0x7,0x5,0xF3,0x7,0x6,0x0
	.DB  0x1E,0xF3,0x7,0x8,0x4,0xF3,0x7,0x7
	.DB  0x0,0x1D,0xF3,0x7,0x9,0x2,0xF3,0x7
	.DB  0x8,0x0,0x1D,0xF3,0x7,0xA,0x1,0xF3
	.DB  0x7,0x9,0x0,0x1E,0xF3,0x7,0xA,0x1F
	.DB  0xF3,0x7,0xA,0x0,0x1E,0xF3,0x7,0xB
	.DB  0x1E,0xF3,0x7,0xB,0x0,0x1D,0xF3,0x7
	.DB  0xC,0x1D,0xF3,0x7,0xC,0x0,0x1E,0xF4
	.DB  0x7,0x1,0x1C,0xF4,0x7,0x1,0x0,0x1E
	.DB  0xF4,0x7,0x2,0x1B,0xF4,0x7,0x2,0x0
	.DB  0x1E,0xF4,0x7,0x3,0x1C,0xF4,0x7,0x3
	.DB  0x0,0x1D,0xF4,0x7,0x4,0x1A,0xF4,0x7
	.DB  0x4,0x0,0x1E,0xF4,0x7,0x5,0x1A,0xF4
	.DB  0x7,0x5,0x0,0x1D,0xF4,0x7,0x6,0x18
	.DB  0xF4,0x7,0x6,0x0,0x1D,0xF4,0x7,0x7
	.DB  0x17,0xF4,0x7,0x6,0x1,0x1E,0xF4,0x7
	.DB  0x8,0x16,0xF4,0x7,0x7,0x0,0x1D,0xF4
	.DB  0x7,0x9,0x14,0xF4,0x7,0x8,0x0,0x1D
	.DB  0xF4,0x7,0xA,0x13,0xF4,0x7,0x9,0x0
	.DB  0x1E,0xF4,0x7,0xB,0x12,0xF4,0x7,0xA
	.DB  0x0,0x1D,0xF4,0x7,0xC,0x11,0xF4,0x7
	.DB  0xB,0x0,0x1E,0xF5,0x7,0x1,0x10,0xF4
	.DB  0x7,0xC,0x0,0x1E,0xF5,0x7,0x2,0xF
	.DB  0xF5,0x7,0x1,0x0,0x1E,0xF5,0x7,0x3
	.DB  0x11,0xF5,0x7,0x2,0x0,0x1D,0xF5,0x7
	.DB  0x4,0xF,0xF5,0x7,0x3,0x0,0x1E,0xF5
	.DB  0x7,0x5,0xF,0xF5,0x7,0x4,0x0,0x1E
	.DB  0xF5,0x7,0x6,0xE,0xF5,0x7,0x5,0x0
	.DB  0x1D,0xF5,0x7,0x7,0xD,0xF5,0x7,0x6
	.DB  0x0,0x1D,0xF5,0x7,0x8,0xB,0xF5,0x7
	.DB  0x7,0x0,0x1E,0xF5,0x7,0x9,0xA,0xF5
	.DB  0x7,0x8,0x0,0x1D,0xF5,0x7,0xA,0x9
	.DB  0xF5,0x7,0x9,0x0,0x1D,0xF5,0x7,0xB
	.DB  0x7,0xF5,0x7,0xA,0x0,0x1E,0xF5,0x7
	.DB  0xC,0x7,0xF5,0x7,0xB,0x0,0x1D,0xF6
	.DB  0x7,0x1,0x5,0xF5,0x7,0xC,0x0,0x1E
	.DB  0xF6,0x7,0x2,0x4,0xF6,0x7,0x1,0x0
	.DB  0x1E,0xF6,0x7,0x3,0x6,0xF6,0x7,0x2
	.DB  0x0,0x1D,0xF6,0x7,0x4,0x4,0xF6,0x7
	.DB  0x3,0x0,0x1E,0xF6,0x7,0x5,0x4,0xF6
	.DB  0x7,0x4,0x0,0x1E,0xF6,0x7,0x6,0x3
	.DB  0xF6,0x7,0x5,0x0,0x1D,0xF6,0x7,0x7
	.DB  0x2,0xF6,0x7,0x6,0x0,0x1E,0xF6,0x7
	.DB  0x8,0x1,0xF6,0x7,0x7,0x0,0x1D,0xF6
	.DB  0x7,0x8,0x1E,0xF6,0x7,0x8,0x0,0x1E
	.DB  0xF6,0x7,0x9,0x1D,0xF6,0x7,0x9,0x0
	.DB  0x1D,0xF6,0x7,0xA,0x1C,0xF6,0x7,0xA
	.DB  0x0,0x1D,0xF6,0x7,0xB,0x1A,0xF6,0x7
	.DB  0xB,0x0,0x1E,0xF6,0x7,0xC,0x1A,0xF6
	.DB  0x7,0xC,0x0,0x1D,0xF7,0x7,0x1,0x18
	.DB  0xF7,0x7,0x1,0x0,0x1E,0xF7,0x7,0x2
	.DB  0x17,0xF7,0x7,0x2,0x0,0x1E,0xF7,0x7
	.DB  0x3,0x19,0xF7,0x7,0x3,0x0,0x1D,0xF7
	.DB  0x7,0x4,0x17,0xF7,0x7,0x4,0x0,0x1E
	.DB  0xF7,0x7,0x5,0x17,0xF7,0x7,0x5,0x0
	.DB  0x1E,0xF7,0x7,0x6,0x16,0xF7,0x7,0x5
	.DB  0x1,0x1D,0xF7,0x7,0x7,0x15,0xF7,0x7
	.DB  0x6,0x0,0x1E,0xF7,0x7,0x8,0x14,0xF7
	.DB  0x7,0x7,0x0,0x1D,0xF7,0x7,0x9,0x12
	.DB  0xF7,0x7,0x8,0x0,0x1E,0xF7,0x7,0xA
	.DB  0x12,0xF7,0x7,0x9,0x0,0x1D,0xF7,0x7
	.DB  0xB,0x10,0xF7,0x7,0xA,0x0,0x1D,0xF7
	.DB  0x7,0xC,0xF,0xF7,0x7,0xB,0x0,0x1E
	.DB  0xF8,0x7,0x1,0xE,0xF7,0x7,0xC,0x0
	.DB  0x1D,0xF8,0x7,0x2,0xC,0xF8,0x7,0x1
	.DB  0x0,0x1E,0xF8,0x7,0x3,0xD,0xF8,0x7
	.DB  0x2,0x0,0x1D,0xF8,0x7,0x4,0xB,0xF8
	.DB  0x7,0x3,0x0,0x1E,0xF8,0x7,0x5,0xB
	.DB  0xF8,0x7,0x4,0x0,0x1E,0xF8,0x7,0x6
	.DB  0xA,0xF8,0x7,0x5,0x0,0x1D,0xF8,0x7
	.DB  0x7,0x9,0xF8,0x7,0x6,0x0,0x1E,0xF8
	.DB  0x7,0x8,0x8,0xF8,0x7,0x7,0x0,0x1D
	.DB  0xF8,0x7,0x9,0x6,0xF8,0x7,0x8,0x0
	.DB  0x1E,0xF8,0x7,0xA,0x6,0xF8,0x7,0x9
	.DB  0x0,0x1E,0xF8,0x7,0xB,0x5,0xF8,0x7
	.DB  0xA,0x0,0x1D,0xF8,0x7,0xC,0x4,0xF8
	.DB  0x7,0xB,0x0,0x1E,0xF9,0x7,0x1,0x3
	.DB  0xF8,0x7,0xC,0x0,0x1D,0xF9,0x7,0x2
	.DB  0x1,0xF9,0x7,0x1,0x0,0x1D,0xF9,0x7
	.DB  0x3,0x2,0xF9,0x7,0x2,0x0,0x1E,0xF9
	.DB  0x7,0x4,0x1,0xF9,0x7,0x3,0x0,0x1D
	.DB  0xF9,0x7,0x4,0x1E,0xF9,0x7,0x4,0x0
	.DB  0x1E,0xF9,0x7,0x5,0x1E,0xF9,0x7,0x5
	.DB  0x0,0x1D,0xF9,0x7,0x6,0x1C,0xF9,0x7
	.DB  0x6,0x0,0x1E,0xF9,0x7,0x7,0x1C,0xF9
	.DB  0x7,0x7,0x0,0x1D,0xF9,0x7,0x8,0x1A
	.DB  0xF9,0x7,0x8,0x0,0x1E,0xF9,0x7,0x9
	.DB  0x19,0xF9,0x7,0x9,0x0,0x1E,0xF9,0x7
	.DB  0xA,0x19,0xF9,0x7,0xA,0x0,0x1E,0xF9
	.DB  0x7,0xB,0x18,0xF9,0x7,0xB,0x0,0x1D
	.DB  0xF9,0x7,0xC,0x17,0xF9,0x7,0xC,0x0
	.DB  0x1E,0xFA,0x7,0x1,0x16,0xFA,0x7,0x1
	.DB  0x0,0x1D,0xFA,0x7,0x2,0x14,0xFA,0x7
	.DB  0x2,0x0,0x1E,0xFA,0x7,0x3,0x16,0xFA
	.DB  0x7,0x2,0x1,0x1D,0xFA,0x7,0x4,0x14
	.DB  0xFA,0x7,0x3,0x0,0x1D,0xFA,0x7,0x5
	.DB  0x13,0xFA,0x7,0x4,0x0,0x1E,0xFA,0x7
	.DB  0x6,0x12,0xFA,0x7,0x5,0x0,0x1D,0xFA
	.DB  0x7,0x7,0x11,0xFA,0x7,0x6,0x0,0x1E
	.DB  0xFA,0x7,0x8,0x10,0xFA,0x7,0x7,0x0
	.DB  0x1D,0xFA,0x7,0x9,0xE,0xFA,0x7,0x8
	.DB  0x0,0x1E,0xFA,0x7,0xA,0xE,0xFA,0x7
	.DB  0x9,0x0,0x1E,0xFA,0x7,0xB,0xD,0xFA
	.DB  0x7,0xA,0x0,0x1D,0xFA,0x7,0xC,0xC
	.DB  0xFA,0x7,0xB,0x0,0x1E,0xFB,0x7,0x1
	.DB  0xB,0xFA,0x7,0xC,0x0,0x1E,0xFB,0x7
	.DB  0x2,0xA,0xFB,0x7,0x1,0x0,0x1D,0xFB
	.DB  0x7,0x3,0xB,0xFB,0x7,0x2,0x0,0x1E
	.DB  0xFB,0x7,0x4,0xA,0xFB,0x7,0x3,0x0
	.DB  0x1D,0xFB,0x7,0x5,0x9,0xFB,0x7,0x4
	.DB  0x0,0x1D,0xFB,0x7,0x6,0x7,0xFB,0x7
	.DB  0x5,0x0,0x1E,0xFB,0x7,0x7,0x7,0xFB
	.DB  0x7,0x6,0x0,0x1D,0xFB,0x7,0x8,0x5
	.DB  0xFB,0x7,0x7,0x0,0x1D,0xFB,0x7,0x9
	.DB  0x3,0xFB,0x7,0x8,0x0,0x1E,0xFB,0x7
	.DB  0xA,0x3,0xFB,0x7,0x9,0x0,0x1E,0xFB
	.DB  0x7,0xB,0x2,0xFB,0x7,0xA,0x0,0x1D
	.DB  0xFB,0x7,0xC,0x1,0xFB,0x7,0xB,0x0
	.DB  0x1E,0xFB,0x7,0xC,0x1F,0xFB,0x7,0xC
	.DB  0x0,0x1E,0xFC,0x7,0x1,0x1E,0xFC,0x7
	.DB  0x1,0x0,0x1E,0xFC,0x7,0x2,0x1D,0xFC
	.DB  0x7,0x2,0x0,0x1D,0xFC,0x7,0x3,0x1D
	.DB  0xFC,0x7,0x3,0x0,0x1E,0xFC,0x7,0x4
	.DB  0x1C,0xFC,0x7,0x4,0x0,0x1D,0xFC,0x7
	.DB  0x5,0x1B,0xFC,0x7,0x5,0x0,0x1D,0xFC
	.DB  0x7,0x6,0x19,0xFC,0x7,0x6,0x0,0x1E
	.DB  0xFC,0x7,0x7,0x19,0xFC,0x7,0x7,0x0
	.DB  0x1D,0xFC,0x7,0x8,0x17,0xFC,0x7,0x7
	.DB  0x1,0x1D,0xFC,0x7,0x9,0x15,0xFC,0x7
	.DB  0x8,0x0,0x1E,0xFC,0x7,0xA,0x15,0xFC
	.DB  0x7,0x9,0x0,0x1D,0xFC,0x7,0xB,0x13
	.DB  0xFC,0x7,0xA,0x0,0x1E,0xFC,0x7,0xC
	.DB  0x13,0xFC,0x7,0xB,0x0,0x1E,0xFD,0x7
	.DB  0x1,0x12,0xFC,0x7,0xC,0x0,0x1E,0xFD
	.DB  0x7,0x2,0x11,0xFD,0x7,0x1,0x0,0x1E
	.DB  0xFD,0x7,0x3,0x13,0xFD,0x7,0x2,0x0
	.DB  0x1D,0xFD,0x7,0x4,0x11,0xFD,0x7,0x3
	.DB  0x0,0x1E,0xFD,0x7,0x5,0x11,0xFD,0x7
	.DB  0x4,0x0,0x1D,0xFD,0x7,0x6,0xF,0xFD
	.DB  0x7,0x5,0x0,0x1D,0xFD,0x7,0x7,0xE
	.DB  0xFD,0x7,0x6,0x0,0x1E,0xFD,0x7,0x8
	.DB  0xD,0xFD,0x7,0x7,0x0,0x1D,0xFD,0x7
	.DB  0x9,0xB,0xFD,0x7,0x8,0x0,0x1D,0xFD
	.DB  0x7,0xA,0xA,0xFD,0x7,0x9,0x0,0x1E
	.DB  0xFD,0x7,0xB,0x9,0xFD,0x7,0xA,0x0
	.DB  0x1D,0xFD,0x7,0xC,0x8,0xFD,0x7,0xB
	.DB  0x0,0x1E,0xFE,0x7,0x1,0x7,0xFD,0x7
	.DB  0xC,0x0,0x1E,0xFE,0x7,0x2,0x6,0xFE
	.DB  0x7,0x1,0x0,0x1E,0xFE,0x7,0x3,0x8
	.DB  0xFE,0x7,0x2,0x0,0x1D,0xFE,0x7,0x4
	.DB  0x6,0xFE,0x7,0x3,0x0,0x1E,0xFE,0x7
	.DB  0x5,0x6,0xFE,0x7,0x4,0x0,0x1D,0xFE
	.DB  0x7,0x6,0x4,0xFE,0x7,0x5,0x0,0x1E
	.DB  0xFE,0x7,0x7,0x4,0xFE,0x7,0x6,0x0
	.DB  0x1D,0xFE,0x7,0x8,0x2,0xFE,0x7,0x7
	.DB  0x0,0x1E,0xFE,0x7,0x9,0x1,0xFE,0x7
	.DB  0x8,0x0,0x1D,0xFE,0x7,0x9,0x1E,0xFE
	.DB  0x7,0x9,0x0,0x1D,0xFE,0x7,0xA,0x1D
	.DB  0xFE,0x7,0xA,0x0,0x1E,0xFE,0x7,0xB
	.DB  0x1C,0xFE,0x7,0xB,0x0,0x1D,0xFE,0x7
	.DB  0xC,0x1B,0xFE,0x7,0xC,0x0,0x1E,0xFF
	.DB  0x7,0x1,0x1A,0xFF,0x7,0x1,0x0,0x1E
	.DB  0xFF,0x7,0x2,0x19,0xFF,0x7,0x2,0x0
	.DB  0x1D,0xFF,0x7,0x3,0x1A,0xFF,0x7,0x3
	.DB  0x0,0x1E,0xFF,0x7,0x4,0x19,0xFF,0x7
	.DB  0x4,0x0,0x1E,0xFF,0x7,0x5,0x19,0xFF
	.DB  0x7,0x5,0x0,0x1D,0xFF,0x7,0x6,0x17
	.DB  0xFF,0x7,0x5,0x1,0x1E,0xFF,0x7,0x7
	.DB  0x17,0xFF,0x7,0x6,0x0,0x1D,0xFF,0x7
	.DB  0x8,0x15,0xFF,0x7,0x7,0x0,0x1E,0xFF
	.DB  0x7,0x9,0x14,0xFF,0x7,0x8,0x0,0x1D
	.DB  0xFF,0x7,0xA,0x13,0xFF,0x7,0x9,0x0
	.DB  0x1D,0xFF,0x7,0xB,0x11,0xFF,0x7,0xA
	.DB  0x0,0x1E,0xFF,0x7,0xC,0x11,0xFF,0x7
	.DB  0xB,0x0,0x1D,0x0,0x8,0x1,0xF,0xFF
	.DB  0x7,0xC,0x0,0x1E,0x0,0x8,0x2,0xE
	.DB  0x0,0x8,0x1,0x0,0x1D,0x0,0x8,0x3
	.DB  0xE,0x0,0x8,0x2,0x0,0x1E,0x0,0x8
	.DB  0x4,0xD,0x0,0x8,0x3,0x0,0x1E,0x0
	.DB  0x8,0x5,0xD,0x0,0x8,0x4,0x0,0x1D
	.DB  0x0,0x8,0x6,0xB,0x0,0x8,0x5,0x0
	.DB  0x1E,0x0,0x8,0x7,0xB,0x0,0x8,0x6
	.DB  0x0,0x1E,0x0,0x8,0x8,0xA,0x0,0x8
	.DB  0x7,0x0,0x1D,0x0,0x8,0x9,0x8,0x0
	.DB  0x8,0x8,0x0,0x1E,0x0,0x8,0xA,0x8
	.DB  0x0,0x8,0x9,0x0,0x1D,0x0,0x8,0xB
	.DB  0x6,0x0,0x8,0xA,0x0,0x1D,0x0,0x8
	.DB  0xC,0x5,0x0,0x8,0xB,0x0,0x1E,0x1
	.DB  0x8,0x1,0x4,0x0,0x8,0xC,0x0,0x1D
	.DB  0x1,0x8,0x2,0x2,0x1,0x8,0x1,0x0
	.DB  0x1E,0x1,0x8,0x3,0x4,0x1,0x8,0x2
	.DB  0x0,0x1D,0x1,0x8,0x4,0x2,0x1,0x8
	.DB  0x3,0x0,0x1E,0x1,0x8,0x5,0x2,0x1
	.DB  0x8,0x4,0x0,0x1D,0x1,0x8,0x5,0x1F
	.DB  0x1,0x8,0x5,0x0,0x1E,0x1,0x8,0x6
	.DB  0x1E,0x1,0x8,0x6,0x0,0x1E,0x1,0x8
	.DB  0x7,0x1E,0x1,0x8,0x7,0x0,0x1D,0x1
	.DB  0x8,0x8,0x1C,0x1,0x8,0x8,0x0,0x1E
	.DB  0x1,0x8,0x9,0x1B,0x1,0x8,0x9,0x0
	.DB  0x1D,0x1,0x8,0xA,0x1A,0x1,0x8,0xA
	.DB  0x0,0x1E,0x1,0x8,0xB,0x19,0x1,0x8
	.DB  0xB,0x0,0x1E,0x1,0x8,0xC,0x19,0x1
	.DB  0x8,0xC,0x0,0x1D,0x2,0x8,0x1,0x17
	.DB  0x2,0x8,0x1,0x0,0x1D,0x2,0x8,0x2
	.DB  0x15,0x2,0x8,0x2,0x0,0x1E,0x2,0x8
	.DB  0x3,0x17,0x2,0x8,0x3,0x0,0x1D,0x2
	.DB  0x8,0x4,0x15,0x2,0x8,0x3,0x1,0x1E
	.DB  0x2,0x8,0x5,0x15,0x2,0x8,0x4,0x0
	.DB  0x1D,0x2,0x8,0x6,0x13,0x2,0x8,0x5
	.DB  0x0,0x1E,0x2,0x8,0x7,0x13,0x2,0x8
	.DB  0x6,0x0,0x1D,0x2,0x8,0x8,0x11,0x2
	.DB  0x8,0x7,0x0,0x1E,0x2,0x8,0x9,0x10
	.DB  0x2,0x8,0x8,0x0,0x1E,0x2,0x8,0xA
	.DB  0x10,0x2,0x8,0x9,0x0,0x1D,0x2,0x8
	.DB  0xB,0xE,0x2,0x8,0xA,0x0,0x1E,0x2
	.DB  0x8,0xC,0xE,0x2,0x8,0xB,0x0,0x1E
	.DB  0x3,0x8,0x1,0xD,0x2,0x8,0xC,0x0
	.DB  0x1D,0x3,0x8,0x2,0xB,0x3,0x8,0x1
	.DB  0x0,0x1D,0x3,0x8,0x3,0xC,0x3,0x8
	.DB  0x2,0x0,0x1E,0x3,0x8,0x4,0xB,0x3
	.DB  0x8,0x3,0x0,0x1D,0x3,0x8,0x5,0xA
	.DB  0x3,0x8,0x4,0x0,0x1E,0x3,0x8,0x6
	.DB  0x9,0x3,0x8,0x5,0x0,0x1D,0x3,0x8
	.DB  0x7,0x8,0x3,0x8,0x6,0x0,0x1D,0x3
	.DB  0x8,0x8,0x6,0x3,0x8,0x7,0x0,0x1E
	.DB  0x3,0x8,0x9,0x5,0x3,0x8,0x8,0x0
	.DB  0x1E,0x3,0x8,0xA,0x5,0x3,0x8,0x9
	.DB  0x0,0x1D,0x3,0x8,0xB,0x3,0x3,0x8
	.DB  0xA,0x0,0x1E,0x3,0x8,0xC,0x3,0x3
	.DB  0x8,0xB,0x0,0x1E,0x4,0x8,0x1,0x2
	.DB  0x3,0x8,0xC,0x0,0x1E,0x4,0x8,0x2
	.DB  0x1,0x4,0x8,0x1,0x0,0x1D,0x4,0x8
	.DB  0x3,0x1,0x4,0x8,0x2,0x0,0x1E,0x4
	.DB  0x8,0x3,0x1F,0x4,0x8,0x3,0x0,0x1D
	.DB  0x4,0x8,0x4,0x1D,0x4,0x8,0x4,0x0
	.DB  0x1D,0x4,0x8,0x5,0x1C,0x4,0x8,0x5
	.DB  0x0,0x1E,0x4,0x8,0x6,0x1B,0x4,0x8
	.DB  0x6,0x0,0x1D,0x4,0x8,0x7,0x1A,0x4
	.DB  0x8,0x7,0x0,0x1D,0x4,0x8,0x8,0x18
	.DB  0x4,0x8,0x8,0x0,0x1E,0x4,0x8,0x9
	.DB  0x17,0x4,0x8,0x8,0x1,0x1D,0x4,0x8
	.DB  0xA,0x16,0x4,0x8,0x9,0x0,0x1E,0x4
	.DB  0x8,0xB,0x15,0x4,0x8,0xA,0x0,0x1E
	.DB  0x4,0x8,0xC,0x15,0x4,0x8,0xB,0x0
	.DB  0x1E,0x5,0x8,0x1,0x14,0x4,0x8,0xC
	.DB  0x0,0x1D,0x5,0x8,0x2,0x12,0x5,0x8
	.DB  0x1,0x0,0x1E,0x5,0x8,0x3,0x14,0x5
	.DB  0x8,0x2,0x0,0x1E,0x5,0x8,0x4,0x13
	.DB  0x5,0x8,0x3,0x0,0x1D,0x5,0x8,0x5
	.DB  0x12,0x5,0x8,0x4,0x0,0x1D,0x5,0x8
	.DB  0x6,0x10,0x5,0x8,0x5,0x0,0x1E,0x5
	.DB  0x8,0x7,0x10,0x5,0x8,0x6,0x0,0x1D
	.DB  0x5,0x8,0x8,0xE,0x5,0x8,0x7,0x0
	.DB  0x1D,0x5,0x8,0x9,0xC,0x5,0x8,0x8
	.DB  0x0,0x1E,0x5,0x8,0xA,0xC,0x5,0x8
	.DB  0x9,0x0,0x1D,0x5,0x8,0xB,0xA,0x5
	.DB  0x8,0xA,0x0,0x1E,0x5,0x8,0xC,0xA
	.DB  0x5,0x8,0xB,0x0,0x1E,0x6,0x8,0x1
	.DB  0x9,0x5,0x8,0xC,0x0,0x1E,0x6,0x8
	.DB  0x2,0x8,0x6,0x8,0x1,0x0,0x1D,0x6
	.DB  0x8,0x3,0x9,0x6,0x8,0x2,0x0,0x1E
	.DB  0x6,0x8,0x4,0x8,0x6,0x8,0x3,0x0
	.DB  0x1E,0x6,0x8,0x5,0x8,0x6,0x8,0x4
	.DB  0x0,0x1D,0x6,0x8,0x6,0x6,0x6,0x8
	.DB  0x5,0x0,0x1D,0x6,0x8,0x7,0x5,0x6
	.DB  0x8,0x6,0x0,0x1E,0x6,0x8,0x8,0x4
	.DB  0x6,0x8,0x7,0x0,0x1D,0x6,0x8,0x9
	.DB  0x2,0x6,0x8,0x8,0x0,0x1D,0x6,0x8
	.DB  0xA,0x1,0x6,0x8,0x9,0x0,0x1E,0x6
	.DB  0x8,0xA,0x1F,0x6,0x8,0xA,0x0,0x1D
	.DB  0x6,0x8,0xB,0x1D,0x6,0x8,0xB,0x0
	.DB  0x1E,0x6,0x8,0xC,0x1D,0x6,0x8,0xC
	.DB  0x0,0x1E,0x7,0x8,0x1,0x1C,0x7,0x8
	.DB  0x1,0x0,0x1D,0x7,0x8,0x2,0x1A,0x7
	.DB  0x8,0x2,0x0,0x1E,0x7,0x8,0x3,0x1C
	.DB  0x7,0x8,0x3,0x0,0x1E,0x7,0x8,0x4
	.DB  0x1B,0x7,0x8,0x4,0x0,0x1D,0x7,0x8
	.DB  0x5,0x1A,0x7,0x8,0x5,0x0,0x1E,0x7
	.DB  0x8,0x6,0x19,0x7,0x8,0x6,0x0,0x1D
	.DB  0x7,0x8,0x7,0x18,0x7,0x8,0x6,0x1
	.DB  0x1E,0x7,0x8,0x8,0x17,0x7,0x8,0x7
	.DB  0x0,0x1D,0x7,0x8,0x9,0x15,0x7,0x8
	.DB  0x8,0x0,0x1D,0x7,0x8,0xA,0x14,0x7
	.DB  0x8,0x9,0x0,0x1E,0x7,0x8,0xB,0x13
	.DB  0x7,0x8,0xA,0x0,0x1D,0x7,0x8,0xC
	.DB  0x12,0x7,0x8,0xB,0x0,0x1E,0x8,0x8
	.DB  0x1,0x11,0x7,0x8,0xC,0x0,0x1D,0x8
	.DB  0x8,0x2,0xF,0x8,0x8,0x1,0x0,0x1E
	.DB  0x8,0x8,0x3,0x10,0x8,0x8,0x2,0x0
	.DB  0x1E,0x8,0x8,0x4,0xF,0x8,0x8,0x3
	.DB  0x0,0x1D,0x8,0x8,0x5,0xE,0x8,0x8
	.DB  0x4,0x0,0x1E,0x8,0x8,0x6,0xD,0x8
	.DB  0x8,0x5,0x0,0x1E,0x8,0x8,0x7,0xD
	.DB  0x8,0x8,0x6,0x0,0x1D,0x8,0x8,0x8
	.DB  0xB,0x8,0x8,0x7,0x0,0x1E,0x8,0x8
	.DB  0x9,0xA,0x8,0x8,0x8,0x0,0x1D,0x8
	.DB  0x8,0xA,0x9,0x8,0x8,0x9,0x0,0x1D
	.DB  0x8,0x8,0xB,0x7,0x8,0x8,0xA,0x0
	.DB  0x1E,0x8,0x8,0xC,0x7,0x8,0x8,0xB
	.DB  0x0,0x1D,0x9,0x8,0x1,0x5,0x8,0x8
	.DB  0xC,0x0,0x1E,0x9,0x8,0x2,0x4,0x9
	.DB  0x8,0x1,0x0,0x1D,0x9,0x8,0x3,0x5
	.DB  0x9,0x8,0x2,0x0,0x1E,0x9,0x8,0x4
	.DB  0x4,0x9,0x8,0x3,0x0,0x1D,0x9,0x8
	.DB  0x5,0x3,0x9,0x8,0x4,0x0,0x1E,0x9
	.DB  0x8,0x6,0x2,0x9,0x8,0x5,0x0,0x1E
	.DB  0x9,0x8,0x7,0x2,0x9,0x8,0x6,0x0
	.DB  0x1D,0x9,0x8,0x7,0x1F,0x9,0x8,0x7
	.DB  0x0,0x1E,0x9,0x8,0x8,0x1E,0x9,0x8
	.DB  0x8,0x0,0x1D,0x9,0x8,0x9,0x1C,0x9
	.DB  0x8,0x9,0x0,0x1E,0x9,0x8,0xA,0x1C
	.DB  0x9,0x8,0xA,0x0,0x1D,0x9,0x8,0xB
	.DB  0x1A,0x9,0x8,0xB,0x0,0x1E,0x9,0x8
	.DB  0xC,0x1A,0x9,0x8,0xC,0x0,0x1D,0xA
	.DB  0x8,0x1,0x18,0xA,0x8,0x1,0x0,0x1E
	.DB  0xA,0x8,0x2,0x17,0xA,0x8,0x2,0x0
	.DB  0x1D,0xA,0x8,0x3,0x18,0xA,0x8,0x3
	.DB  0x0,0x1E,0xA,0x8,0x4,0x17,0xA,0x8
	.DB  0x4,0x0,0x1D,0xA,0x8,0x5,0x16,0xA
	.DB  0x8,0x4,0x1,0x1E,0xA,0x8,0x6,0x15
	.DB  0xA,0x8,0x5,0x0,0x1D,0xA,0x8,0x7
	.DB  0x14,0xA,0x8,0x6,0x0,0x1E,0xA,0x8
	.DB  0x8,0x13,0xA,0x8,0x7,0x0,0x1E,0xA
	.DB  0x8,0x9,0x12,0xA,0x8,0x8,0x0,0x1D
	.DB  0xA,0x8,0xA,0x11,0xA,0x8,0x9,0x0
	.DB  0x1E,0xA,0x8,0xB,0x10,0xA,0x8,0xA
	.DB  0x0,0x1D,0xA,0x8,0xC,0xF,0xA,0x8
	.DB  0xB,0x0,0x1E,0xB,0x8,0x1,0xE,0xA
	.DB  0x8,0xC,0x0,0x1D,0xB,0x8,0x2,0xC
	.DB  0xB,0x8,0x1,0x0,0x1E,0xB,0x8,0x3
	.DB  0xE,0xB,0x8,0x2,0x0,0x1D,0xB,0x8
	.DB  0x4,0xC,0xB,0x8,0x3,0x0,0x1E,0xB
	.DB  0x8,0x5,0xC,0xB,0x8,0x4,0x0,0x1D
	.DB  0xB,0x8,0x6,0xA,0xB,0x8,0x5,0x0
	.DB  0x1E,0xB,0x8,0x7,0xA,0xB,0x8,0x6
	.DB  0x0,0x1D,0xB,0x8,0x8,0x8,0xB,0x8
	.DB  0x7,0x0,0x1E,0xB,0x8,0x9,0x7,0xB
	.DB  0x8,0x8,0x0,0x1D,0xB,0x8,0xA,0x6
	.DB  0xB,0x8,0x9,0x0,0x1E,0xB,0x8,0xB
	.DB  0x5,0xB,0x8,0xA,0x0,0x1E,0xB,0x8
	.DB  0xC,0x5,0xB,0x8,0xB,0x0,0x1D,0xC
	.DB  0x8,0x1,0x3,0xB,0x8,0xC,0x0,0x1E
	.DB  0xC,0x8,0x2,0x2,0xC,0x8,0x1,0x0
	.DB  0x1D,0xC,0x8,0x3,0x2,0xC,0x8,0x2
	.DB  0x0,0x1E,0xC,0x8,0x4,0x1,0xC,0x8
	.DB  0x3,0x0,0x1D,0xC,0x8,0x4,0x1E,0xC
	.DB  0x8,0x4,0x0,0x1E,0xC,0x8,0x5,0x1E
	.DB  0xC,0x8,0x5,0x0,0x1D,0xC,0x8,0x6
	.DB  0x1C,0xC,0x8,0x6,0x0,0x1D,0xC,0x8
	.DB  0x7,0x1B,0xC,0x8,0x7,0x0,0x1E,0xC
	.DB  0x8,0x8,0x1A,0xC,0x8,0x8,0x0,0x1D
	.DB  0xC,0x8,0x9,0x18,0xC,0x8,0x9,0x0
	.DB  0x1E,0xC,0x8,0xA,0x18,0xC,0x8,0xA
	.DB  0x0,0x1E,0xC,0x8,0xB,0x17,0xC,0x8
	.DB  0xB,0x0,0x1E,0xC,0x8,0xC,0x17,0xC
	.DB  0x8,0xC,0x0,0x1D,0xD,0x8,0x1,0x15
	.DB  0xD,0x8,0x1,0x0,0x1E,0xD,0x8,0x2
	.DB  0x14,0xD,0x8,0x2,0x0,0x1E,0xD,0x8
	.DB  0x3,0x16,0xD,0x8,0x3,0x0,0x1D,0xD
	.DB  0x8,0x4,0x14,0xD,0x8,0x3,0x1,0x1D
	.DB  0xD,0x8,0x5,0x13,0xD,0x8,0x4,0x0
	.DB  0x1E,0xD,0x8,0x6,0x12,0xD,0x8,0x5
	.DB  0x0,0x1D,0xD,0x8,0x7,0x11,0xD,0x8
	.DB  0x6,0x0,0x1D,0xD,0x8,0x8,0xF,0xD
	.DB  0x8,0x7,0x0,0x1E,0xD,0x8,0x9,0xE
	.DB  0xD,0x8,0x8,0x0,0x1D,0xD,0x8,0xA
	.DB  0xD,0xD,0x8,0x9,0x0,0x1E,0xD,0x8
	.DB  0xB,0xC,0xD,0x8,0xA,0x0,0x1E,0xD
	.DB  0x8,0xC,0xC,0xD,0x8,0xB,0x0,0x1E
	.DB  0xE,0x8,0x1,0xB,0xD,0x8,0xC,0x0
	.DB  0x1D,0xE,0x8,0x2,0x9,0xE,0x8,0x1
	.DB  0x0,0x1E,0xE,0x8,0x3,0xB,0xE,0x8
	.DB  0x2,0x0,0x1E,0xE,0x8,0x4,0xA,0xE
	.DB  0x8,0x3,0x0,0x1D,0xE,0x8,0x5,0x9
	.DB  0xE,0x8,0x4,0x0,0x1D,0xE,0x8,0x6
	.DB  0x7,0xE,0x8,0x5,0x0,0x1E,0xE,0x8
	.DB  0x7,0x7,0xE,0x8,0x6,0x0,0x1D,0xE
	.DB  0x8,0x8,0x5,0xE,0x8,0x7,0x0,0x1D
	.DB  0xE,0x8,0x9,0x3,0xE,0x8,0x8,0x0
	.DB  0x1E,0xE,0x8,0xA,0x3,0xE,0x8,0x9
	.DB  0x0,0x1D,0xE,0x8,0xB,0x1,0xE,0x8
	.DB  0xA,0x0,0x1E,0xE,0x8,0xC,0x1,0xE
	.DB  0x8,0xB,0x0,0x1D,0xE,0x8,0xC,0x1E
	.DB  0xE,0x8,0xC,0x0,0x1E,0xF,0x8,0x1
	.DB  0x1D,0xF,0x8,0x1,0x0,0x1E,0xF,0x8
	.DB  0x2,0x1C,0xF,0x8,0x2,0x0,0x1E,0xF
	.DB  0x8,0x3,0x1E,0xF,0x8,0x3,0x0,0x1D
	.DB  0xF,0x8,0x4,0x1C,0xF,0x8,0x4,0x0
	.DB  0x1E,0xF,0x8,0x5,0x1C,0xF,0x8,0x5
	.DB  0x0,0x1D,0xF,0x8,0x6,0x1A,0xF,0x8
	.DB  0x6,0x0,0x1E,0xF,0x8,0x7,0x1A,0xF
	.DB  0x8,0x7,0x0,0x1D,0xF,0x8,0x8,0x18
	.DB  0xF,0x8,0x7,0x1,0x1D,0xF,0x8,0x9
	.DB  0x16,0xF,0x8,0x8,0x0,0x1E,0xF,0x8
	.DB  0xA,0x16,0xF,0x8,0x9,0x0,0x1D,0xF
	.DB  0x8,0xB,0x14,0xF,0x8,0xA,0x0,0x1E
	.DB  0xF,0x8,0xC,0x14,0xF,0x8,0xB,0x0
	.DB  0x1D,0x10,0x8,0x1,0x12,0xF,0x8,0xC
	.DB  0x0,0x1E,0x10,0x8,0x2,0x11,0x10,0x8
	.DB  0x1,0x0,0x1E,0x10,0x8,0x3,0x12,0x10
	.DB  0x8,0x2,0x0,0x1E,0x10,0x8,0x4,0x11
	.DB  0x10,0x8,0x3,0x0,0x1D,0x10,0x8,0x5
	.DB  0x10,0x10,0x8,0x4,0x0,0x1E,0x10,0x8
	.DB  0x6,0xF,0x10,0x8,0x5,0x0,0x1D,0x10
	.DB  0x8,0x7,0xE,0x10,0x8,0x6,0x0,0x1E
	.DB  0x10,0x8,0x8,0xD,0x10,0x8,0x7,0x0
	.DB  0x1D,0x10,0x8,0x9,0xB,0x10,0x8,0x8
	.DB  0x0,0x1D,0x10,0x8,0xA,0xA,0x10,0x8
	.DB  0x9,0x0,0x1E,0x10,0x8,0xB,0x9,0x10
	.DB  0x8,0xA,0x0,0x1D,0x10,0x8,0xC,0x8
	.DB  0x10,0x8,0xB,0x0,0x1E,0x11,0x8,0x1
	.DB  0x7,0x10,0x8,0xC,0x0,0x1D,0x11,0x8
	.DB  0x2,0x5,0x11,0x8,0x1,0x0,0x1E,0x11
	.DB  0x8,0x3,0x7,0x11,0x8,0x2,0x0,0x1E
	.DB  0x11,0x8,0x4,0x6,0x11,0x8,0x3,0x0
	.DB  0x1D,0x11,0x8,0x5,0x5,0x11,0x8,0x4
	.DB  0x0,0x1E,0x11,0x8,0x6,0x4,0x11,0x8
	.DB  0x5,0x0,0x1E,0x11,0x8,0x7,0x4,0x11
	.DB  0x8,0x6,0x0,0x1D,0x11,0x8,0x8,0x2
	.DB  0x11,0x8,0x7,0x0,0x1D,0x11,0x8,0x8
	.DB  0x1F,0x11,0x8,0x8,0x0,0x1E,0x11,0x8
	.DB  0x9,0x1E,0x11,0x8,0x9,0x0,0x1D,0x11
	.DB  0x8,0xA,0x1D,0x11,0x8,0xA,0x0,0x1E
	.DB  0x11,0x8,0xB,0x1C,0x11,0x8,0xB,0x0
	.DB  0x1D,0x11,0x8,0xC,0x1B,0x11,0x8,0xC
	.DB  0x0,0x1E,0x12,0x8,0x1,0x1A,0x12,0x8
	.DB  0x1,0x0,0x1D,0x12,0x8,0x2,0x18,0x12
	.DB  0x8,0x2,0x0,0x1E,0x12,0x8,0x3,0x1A
	.DB  0x12,0x8,0x3,0x0,0x1D,0x12,0x8,0x4
	.DB  0x18,0x12,0x8,0x4,0x0,0x1E,0x12,0x8
	.DB  0x5,0x18,0x12,0x8,0x5,0x0,0x1E,0x12
	.DB  0x8,0x6,0x17,0x12,0x8,0x5,0x1,0x1D
	.DB  0x12,0x8,0x7,0x16,0x12,0x8,0x6,0x0
	.DB  0x1E,0x12,0x8,0x8,0x15,0x12,0x8,0x7
	.DB  0x0,0x1D,0x12,0x8,0x9,0x13,0x12,0x8
	.DB  0x8,0x0,0x1E,0x12,0x8,0xA,0x13,0x12
	.DB  0x8,0x9,0x0,0x1D,0x12,0x8,0xB,0x11
	.DB  0x12,0x8,0xA,0x0,0x1E,0x12,0x8,0xC
	.DB  0x11,0x12,0x8,0xB,0x0,0x1D,0x13,0x8
	.DB  0x1,0xF,0x12,0x8,0xC,0x0,0x1E,0x13
	.DB  0x8,0x2,0xE,0x13,0x8,0x1,0x0,0x1D
	.DB  0x13,0x8,0x3,0xF,0x13,0x8,0x2,0x0
	.DB  0x1E,0x13,0x8,0x4,0xE,0x13,0x8,0x3
	.DB  0x0,0x1D,0x13,0x8,0x5,0xD,0x13,0x8
	.DB  0x4,0x0,0x1E,0x13,0x8,0x6,0xC,0x13
	.DB  0x8,0x5,0x0,0x1D,0x13,0x8,0x7,0xB
	.DB  0x13,0x8,0x6,0x0,0x1E,0x13,0x8,0x8
	.DB  0xA,0x13,0x8,0x7,0x0,0x1E,0x13,0x8
	.DB  0x9,0x9,0x13,0x8,0x8,0x0,0x1D,0x13
	.DB  0x8,0xA,0x8,0x13,0x8,0x9,0x0,0x1E
	.DB  0x13,0x8,0xB,0x7,0x13,0x8,0xA,0x0
	.DB  0x1D,0x13,0x8,0xC,0x6,0x13,0x8,0xB
	.DB  0x0,0x1E,0x14,0x8,0x1,0x5,0x13,0x8
	.DB  0xC,0x0,0x1D,0x14,0x8,0x2,0x3,0x14
	.DB  0x8,0x1,0x0,0x1E,0x14,0x8,0x3,0x4
	.DB  0x14,0x8,0x2,0x0,0x1D,0x14,0x8,0x4
	.DB  0x2,0x14,0x8,0x3,0x0,0x1E,0x14,0x8
	.DB  0x5,0x2,0x14,0x8,0x4,0x0,0x1D,0x14
	.DB  0x8,0x5,0x1F,0x14,0x8,0x5,0x0,0x1D
	.DB  0x14,0x8,0x6,0x1D,0x14,0x8,0x6,0x0
	.DB  0x1E,0x14,0x8,0x7,0x1D,0x14,0x8,0x7
	.DB  0x0,0x1E,0x14,0x8,0x8,0x1C,0x14,0x8
	.DB  0x8,0x0,0x1D,0x14,0x8,0x9,0x1A,0x14
	.DB  0x8,0x9,0x0,0x1E,0x14,0x8,0xA,0x1A
	.DB  0x14,0x8,0xA,0x0,0x1E,0x14,0x8,0xB
	.DB  0x19,0x14,0x8,0xB,0x0,0x1D,0x14,0x8
	.DB  0xC,0x18,0x14,0x8,0xC,0x0,0x1E,0x15
	.DB  0x8,0x1,0x17,0x15,0x8,0x1,0x0,0x1D
	.DB  0x15,0x8,0x2,0x15,0x15,0x8,0x2,0x0
	.DB  0x1E,0x15,0x8,0x3,0x17,0x15,0x8,0x3
	.DB  0x0,0x1D,0x15,0x8,0x4,0x15,0x15,0x8
	.DB  0x4,0x0,0x1E,0x15,0x8,0x5,0x15,0x15
	.DB  0x8,0x4,0x1,0x1D,0x15,0x8,0x6,0x13
	.DB  0x15,0x8,0x5,0x0,0x1D,0x15,0x8,0x7
	.DB  0x12,0x15,0x8,0x6,0x0,0x1E,0x15,0x8
	.DB  0x8,0x11,0x15,0x8,0x7,0x0,0x1D,0x15
	.DB  0x8,0x9,0xF,0x15,0x8,0x8,0x0,0x1E
	.DB  0x15,0x8,0xA,0xF,0x15,0x8,0x9,0x0
	.DB  0x1E,0x15,0x8,0xB,0xE,0x15,0x8,0xA
	.DB  0x0,0x1E,0x15,0x8,0xC,0xE,0x15,0x8
	.DB  0xB,0x0,0x1D,0x16,0x8,0x1,0xC,0x15
	.DB  0x8,0xC,0x0,0x1E,0x16,0x8,0x2,0xB
	.DB  0x16,0x8,0x1,0x0,0x1D,0x16,0x8,0x3
	.DB  0xC,0x16,0x8,0x2,0x0,0x1E,0x16,0x8
	.DB  0x4,0xB,0x16,0x8,0x3,0x0,0x1D,0x16
	.DB  0x8,0x5,0xA,0x16,0x8,0x4,0x0,0x1E
	.DB  0x16,0x8,0x6,0x9,0x16,0x8,0x5,0x0
	.DB  0x1D,0x16,0x8,0x7,0x8,0x16,0x8,0x6
	.DB  0x0,0x1D,0x16,0x8,0x8,0x6,0x16,0x8
	.DB  0x7,0x0,0x1E,0x16,0x8,0x9,0x5,0x16
	.DB  0x8,0x8,0x0,0x1D,0x16,0x8,0xA,0x4
	.DB  0x16,0x8,0x9,0x0,0x1E,0x16,0x8,0xB
	.DB  0x3,0x16,0x8,0xA,0x0,0x1D,0x16,0x8
	.DB  0xC,0x2,0x16,0x8,0xB,0x0,0x1E,0x17
	.DB  0x8,0x1,0x1,0x16,0x8,0xC,0x0,0x1E
	.DB  0x17,0x8,0x1,0x1F,0x17,0x8,0x1,0x0
	.DB  0x1E,0x17,0x8,0x3,0x2,0x17,0x8,0x2
	.DB  0x0,0x1D,0x17,0x8,0x3,0x1F,0x17,0x8
	.DB  0x3,0x0,0x1E,0x17,0x8,0x4,0x1E,0x17
	.DB  0x8,0x4,0x0,0x1D,0x17,0x8,0x5,0x1D
	.DB  0x17,0x8,0x5,0x0,0x1E,0x17,0x8,0x6
	.DB  0x1C,0x17,0x8,0x6,0x0,0x1D,0x17,0x8
	.DB  0x7,0x1B,0x17,0x8,0x7,0x0,0x1D,0x17
	.DB  0x8,0x8,0x19,0x17,0x8,0x8,0x0,0x1E
	.DB  0x17,0x8,0x9,0x18,0x17,0x8,0x8,0x1
	.DB  0x1D,0x17,0x8,0xA,0x17,0x17,0x8,0x9
	.DB  0x0,0x1E,0x17,0x8,0xB,0x16,0x17,0x8
	.DB  0xA,0x0,0x1D,0x17,0x8,0xC,0x15,0x17
	.DB  0x8,0xB,0x0,0x1E,0x18,0x8,0x1,0x14
	.DB  0x17,0x8,0xC,0x0,0x1E,0x18,0x8,0x2
	.DB  0x13,0x18,0x8,0x1,0x0,0x1E,0x18,0x8
	.DB  0x3,0x14,0x18,0x8,0x2,0x0,0x1D,0x18
	.DB  0x8,0x4,0x12,0x18,0x8,0x3,0x0,0x1E
	.DB  0x18,0x8,0x5,0x12,0x18,0x8,0x4,0x0
	.DB  0x1D,0x18,0x8,0x6,0x10,0x18,0x8,0x5
	.DB  0x0,0x1E,0x18,0x8,0x7,0x10,0x18,0x8
	.DB  0x6,0x0,0x1D,0x18,0x8,0x8,0xE,0x18
	.DB  0x8,0x7,0x0,0x1D,0x18,0x8,0x9,0xC
	.DB  0x18,0x8,0x8,0x0,0x1E,0x18,0x8,0xA
	.DB  0xC,0x18,0x8,0x9,0x0,0x1D,0x18,0x8
	.DB  0xB,0xA,0x18,0x8,0xA,0x0,0x1E,0x18
	.DB  0x8,0xC,0xA,0x18,0x8,0xB,0x0,0x1D
	.DB  0x19,0x8,0x1,0x8,0x18,0x8,0xC,0x0
	.DB  0x1E,0x19,0x8,0x2,0x7,0x19,0x8,0x1
	.DB  0x0,0x1E,0x19,0x8,0x3,0x9,0x19,0x8
	.DB  0x2,0x0,0x1D,0x19,0x8,0x4,0x7,0x19
	.DB  0x8,0x3,0x0,0x1E,0x19,0x8,0x5,0x7
	.DB  0x19,0x8,0x4,0x0,0x1E,0x19,0x8,0x6
	.DB  0x6,0x19,0x8,0x5,0x0,0x1D,0x19,0x8
	.DB  0x7,0x5,0x19,0x8,0x6,0x0,0x1E,0x19
	.DB  0x8,0x8,0x4,0x19,0x8,0x7,0x0,0x1D
	.DB  0x19,0x8,0x9,0x2,0x19,0x8,0x8,0x0
	.DB  0x1D,0x19,0x8,0xA,0x1,0x19,0x8,0x9
	.DB  0x0,0x1E,0x19,0x8,0xA,0x1F,0x19,0x8
	.DB  0xA,0x0,0x1D,0x19,0x8,0xB,0x1D,0x19
	.DB  0x8,0xB,0x0,0x1D,0x19,0x8,0xC,0x1C
	.DB  0x19,0x8,0xC,0x0,0x1E,0x1A,0x8,0x1
	.DB  0x1B,0x1A,0x8,0x1,0x0,0x1E,0x1A,0x8
	.DB  0x2,0x1A,0x1A,0x8,0x2,0x0,0x1D,0x1A
	.DB  0x8,0x3,0x1B,0x1A,0x8,0x3,0x0,0x1E
	.DB  0x1A,0x8,0x4,0x1A,0x1A,0x8,0x4,0x0
	.DB  0x1E,0x1A,0x8,0x5,0x1A,0x1A,0x8,0x5
	.DB  0x0,0x1D,0x1A,0x8,0x6,0x18,0x1A,0x8
	.DB  0x6,0x0,0x1E,0x1A,0x8,0x7,0x18,0x1A
	.DB  0x8,0x6,0x1,0x1D,0x1A,0x8,0x8,0x16
	.DB  0x1A,0x8,0x7,0x0,0x1E,0x1A,0x8,0x9
	.DB  0x15,0x1A,0x8,0x8,0x0,0x1D,0x1A,0x8
	.DB  0xA,0x14,0x1A,0x8,0x9,0x0,0x1E,0x1A
	.DB  0x8,0xB,0x13,0x1A,0x8,0xA,0x0,0x1D
	.DB  0x1A,0x8,0xC,0x12,0x1A,0x8,0xB,0x0
	.DB  0x1E,0x1B,0x8,0x1,0x11,0x1A,0x8,0xC
	.DB  0x0,0x1D,0x1B,0x8,0x2,0xF,0x1B,0x8
	.DB  0x1,0x0,0x1E,0x1B,0x8,0x3,0x11,0x1B
	.DB  0x8,0x2,0x0,0x1D,0x1B,0x8,0x4,0xF
	.DB  0x1B,0x8,0x3,0x0,0x1E,0x1B,0x8,0x5
	.DB  0xF,0x1B,0x8,0x4,0x0,0x1D,0x1B,0x8
	.DB  0x6,0xD,0x1B,0x8,0x5,0x0,0x1E,0x1B
	.DB  0x8,0x7,0xD,0x1B,0x8,0x6,0x0,0x1E
	.DB  0x1B,0x8,0x8,0xC,0x1B,0x8,0x7,0x0
	.DB  0x1D,0x1B,0x8,0x9,0xA,0x1B,0x8,0x8
	.DB  0x0,0x1E,0x1B,0x8,0xA,0xA,0x1B,0x8
	.DB  0x9,0x0,0x1D,0x1B,0x8,0xB,0x8,0x1B
	.DB  0x8,0xA,0x0,0x1E,0x1B,0x8,0xC,0x8
	.DB  0x1B,0x8,0xB,0x0,0x1D,0x1C,0x8,0x1
	.DB  0x6,0x1B,0x8,0xC,0x0,0x1E,0x1C,0x8
	.DB  0x2,0x5,0x1C,0x8,0x1,0x0,0x1D,0x1C
	.DB  0x8,0x3,0x5,0x1C,0x8,0x2,0x0,0x1E
	.DB  0x1C,0x8,0x4,0x4,0x1C,0x8,0x3,0x0
	.DB  0x1D,0x1C,0x8,0x5,0x3,0x1C,0x8,0x4
	.DB  0x0,0x1E,0x1C,0x8,0x6,0x2,0x1C,0x8
	.DB  0x5,0x0,0x1D,0x1C,0x8,0x7,0x1,0x1C
	.DB  0x8,0x6,0x0,0x1E,0x1C,0x8,0x7,0x1F
	.DB  0x1C,0x8,0x7,0x0,0x1D,0x1C,0x8,0x8
	.DB  0x1D,0x1C,0x8,0x8,0x0,0x1E,0x1C,0x8
	.DB  0x9,0x1C,0x1C,0x8,0x9,0x0,0x1E,0x1C
	.DB  0x8,0xA,0x1C,0x1C,0x8,0xA,0x0,0x1D
	.DB  0x1C,0x8,0xB,0x1A,0x1C,0x8,0xB,0x0
	.DB  0x1E,0x1C,0x8,0xC,0x1A,0x1C,0x8,0xC
	.DB  0x0,0x1D,0x1D,0x8,0x1,0x18,0x1D,0x8
	.DB  0x1,0x0,0x1E,0x1D,0x8,0x2,0x17,0x1D
	.DB  0x8,0x2,0x0,0x1D,0x1D,0x8,0x3,0x18
	.DB  0x1D,0x8,0x3,0x0,0x1E,0x1D,0x8,0x4
	.DB  0x17,0x1D,0x8,0x4,0x0,0x1D,0x1D,0x8
	.DB  0x5,0x16,0x1D,0x8,0x4,0x1,0x1D,0x1D
	.DB  0x8,0x6,0x14,0x1D,0x8,0x5,0x0,0x1E
	.DB  0x1D,0x8,0x7,0x14,0x1D,0x8,0x6,0x0
	.DB  0x1D,0x1D,0x8,0x8,0x12,0x1D,0x8,0x7
	.DB  0x0,0x1E,0x1D,0x8,0x9,0x11,0x1D,0x8
	.DB  0x8,0x0,0x1E,0x1D,0x8,0xA,0x11,0x1D
	.DB  0x8,0x9,0x0,0x1E,0x1D,0x8,0xB,0x10
	.DB  0x1D,0x8,0xA,0x0,0x1D,0x1D,0x8,0xC
	.DB  0xF,0x1D,0x8,0xB,0x0,0x1E,0x1E,0x8
	.DB  0x1,0xE,0x1D,0x8,0xC,0x0,0x1D,0x1E
	.DB  0x8,0x2,0xC,0x1E,0x8,0x1,0x0,0x1E
	.DB  0x1E,0x8,0x3,0xE,0x1E,0x8,0x2,0x0
	.DB  0x1D,0x1E,0x8,0x4,0xC,0x1E,0x8,0x3
	.DB  0x0,0x1E,0x1E,0x8,0x5,0xC,0x1E,0x8
	.DB  0x4,0x0,0x1D,0x1E,0x8,0x6,0xA,0x1E
	.DB  0x8,0x5,0x0,0x1D,0x1E,0x8,0x7,0x9
	.DB  0x1E,0x8,0x6,0x0,0x1E,0x1E,0x8,0x8
	.DB  0x8,0x1E,0x8,0x7,0x0,0x1D,0x1E,0x8
	.DB  0x9,0x6,0x1E,0x8,0x8,0x0,0x1E,0x1E
	.DB  0x8,0xA,0x6,0x1E,0x8,0x9,0x0,0x1D
	.DB  0x1E,0x8,0xB,0x4,0x1E,0x8,0xA,0x0
	.DB  0x1E,0x1E,0x8,0xC,0x4,0x1E,0x8,0xB
	.DB  0x0,0x1E,0x1F,0x8,0x1,0x3,0x1E,0x8
	.DB  0xC,0x0,0x1E,0x1F,0x8,0x2,0x2,0x1F
	.DB  0x8,0x1,0x0,0x1D,0x1F,0x8,0x3,0x3
	.DB  0x1F,0x8,0x2,0x0,0x1E,0x1F,0x8,0x4
	.DB  0x2,0x1F,0x8,0x3,0x0,0x1D,0x1F,0x8
	.DB  0x5,0x1,0x1F,0x8,0x4,0x0,0x1E,0x1F
	.DB  0x8,0x5,0x1F,0x1F,0x8,0x5,0x0,0x1D
	.DB  0x1F,0x8,0x6,0x1D,0x1F,0x8,0x6,0x0
	.DB  0x1D,0x1F,0x8,0x7,0x1C,0x1F,0x8,0x7
	.DB  0x0,0x1E,0x1F,0x8,0x8,0x1B,0x1F,0x8
	.DB  0x8,0x0,0x1D,0x1F,0x8,0x9,0x19,0x1F
	.DB  0x8,0x9,0x0,0x1E,0x1F,0x8,0xA,0x19
	.DB  0x1F,0x8,0xA,0x0,0x1D,0x1F,0x8,0xB
	.DB  0x17,0x1F,0x8,0xB,0x0,0x1E,0x1F,0x8
	.DB  0xC,0x17,0x1F,0x8,0xC,0x0,0x1E,0x20
	.DB  0x8,0x1,0x16,0x20,0x8,0x1,0x0,0x1E
	.DB  0x20,0x8,0x2,0x15,0x20,0x8,0x2,0x0
	.DB  0x1D,0x20,0x8,0x3,0x15,0x20,0x8,0x3
	.DB  0x0,0x1E,0x20,0x8,0x4,0x14,0x20,0x8
	.DB  0x3,0x1,0x1D,0x20,0x8,0x5,0x13,0x20
	.DB  0x8,0x4,0x0,0x1E,0x20,0x8,0x6,0x12
	.DB  0x20,0x8,0x5,0x0,0x1D,0x20,0x8,0x7
	.DB  0x11,0x20,0x8,0x6,0x0,0x1D,0x20,0x8
	.DB  0x8,0xF,0x20,0x8,0x7,0x0,0x1D,0x20
	.DB  0x8,0x9,0xD,0x20,0x8,0x8,0x0,0x1E
	.DB  0x20,0x8,0xA,0xD,0x20,0x8,0x9,0x0
	.DB  0x1D,0x20,0x8,0xB,0xB,0x20,0x8,0xA
	.DB  0x0,0x1E,0x20,0x8,0xC,0xB,0x20,0x8
	.DB  0xB,0x0,0x1E,0x21,0x8,0x1,0xA,0x20
	.DB  0x8,0xC,0x0,0x1E,0x21,0x8,0x2,0x9
	.DB  0x21,0x8,0x1,0x0,0x1D,0x21,0x8,0x3
	.DB  0xA,0x21,0x8,0x2,0x0,0x1E,0x21,0x8
	.DB  0x4,0x9,0x21,0x8,0x3,0x0,0x1E,0x21
	.DB  0x8,0x5,0x9,0x21,0x8,0x4,0x0,0x1D
	.DB  0x21,0x8,0x6,0x7,0x21,0x8,0x5,0x0
	.DB  0x1E,0x21,0x8,0x7,0x7,0x21,0x8,0x6
	.DB  0x0,0x1D,0x21,0x8,0x8,0x5,0x21,0x8
	.DB  0x7,0x0,0x1D,0x21,0x8,0x9,0x3,0x21
	.DB  0x8,0x8,0x0,0x1E,0x21,0x8,0xA,0x3
	.DB  0x21,0x8,0x9,0x0,0x1D,0x21,0x8,0xB
	.DB  0x1,0x21,0x8,0xA,0x0,0x1D,0x21,0x8
	.DB  0xB,0x1E,0x21,0x8,0xB,0x0,0x1E,0x21
	.DB  0x8,0xC,0x1E,0x21,0x8,0xC,0x0,0x1E
	.DB  0x22,0x8,0x1,0x1D,0x22,0x8,0x1,0x0
	.DB  0x1D,0x22,0x8,0x2,0x1B,0x22,0x8,0x2
	.DB  0x0,0x1E,0x22,0x8,0x3,0x1D,0x22,0x8
	.DB  0x3,0x0,0x1E,0x22,0x8,0x4,0x1C,0x22
	.DB  0x8,0x4,0x0,0x1D,0x22,0x8,0x5,0x1B
	.DB  0x22,0x8,0x5,0x0,0x1E,0x22,0x8,0x6
	.DB  0x1A,0x22,0x8,0x6,0x0,0x1D,0x22,0x8
	.DB  0x7,0x19,0x22,0x8,0x7,0x0,0x1E,0x22
	.DB  0x8,0x8,0x18,0x22,0x8,0x7,0x1,0x1D
	.DB  0x22,0x8,0x9,0x16,0x22,0x8,0x8,0x0
	.DB  0x1E,0x22,0x8,0xA,0x16,0x22,0x8,0x9
	.DB  0x0,0x1D,0x22,0x8,0xB,0x14,0x22,0x8
	.DB  0xA,0x0,0x1D,0x22,0x8,0xC,0x13,0x22
	.DB  0x8,0xB,0x0,0x1E,0x23,0x8,0x1,0x12
	.DB  0x22,0x8,0xC,0x0,0x1E,0x23,0x8,0x2
	.DB  0x11,0x23,0x8,0x1,0x0,0x1D,0x23,0x8
	.DB  0x3,0x12,0x23,0x8,0x2,0x0,0x1E,0x23
	.DB  0x8,0x4,0x11,0x23,0x8,0x3,0x0,0x1E
	.DB  0x23,0x8,0x5,0x11,0x23,0x8,0x4,0x0
	.DB  0x1D,0x23,0x8,0x6,0xF,0x23,0x8,0x5
	.DB  0x0,0x1E,0x23,0x8,0x7,0xF,0x23,0x8
	.DB  0x6,0x0,0x1D,0x23,0x8,0x8,0xD,0x23
	.DB  0x8,0x7,0x0,0x1E,0x23,0x8,0x9,0xC
	.DB  0x23,0x8,0x8,0x0,0x1D,0x23,0x8,0xA
	.DB  0xB,0x23,0x8,0x9,0x0,0x1E,0x23,0x8
	.DB  0xB,0xA,0x23,0x8,0xA,0x0,0x1D,0x23
	.DB  0x8,0xC,0x9,0x23,0x8,0xB,0x0,0x1E
	.DB  0x24,0x8,0x1,0x8,0x23,0x8,0xC,0x0
	.DB  0x1D,0x24,0x8,0x2,0x6,0x24,0x8,0x1
	.DB  0x0,0x1E,0x24,0x8,0x3,0x7,0x24,0x8
	.DB  0x2,0x0,0x1D,0x24,0x8,0x4,0x5,0x24
	.DB  0x8,0x3,0x0,0x1E,0x24,0x8,0x5,0x5
	.DB  0x24,0x8,0x4,0x0,0x1D,0x24,0x8,0x6
	.DB  0x3,0x24,0x8,0x5,0x0,0x1E,0x24,0x8
	.DB  0x7,0x3,0x24,0x8,0x6,0x0,0x1E,0x24
	.DB  0x8,0x8,0x2,0x24,0x8,0x7,0x0,0x1D
	.DB  0x24,0x8,0x8,0x1F,0x24,0x8,0x8,0x0
	.DB  0x1E,0x24,0x8,0x9,0x1E,0x24,0x8,0x9
	.DB  0x0,0x1D,0x24,0x8,0xA,0x1D,0x24,0x8
	.DB  0xA,0x0,0x1E,0x24,0x8,0xB,0x1C,0x24
	.DB  0x8,0xB,0x0,0x1D,0x24,0x8,0xC,0x1B
	.DB  0x24,0x8,0xC,0x0,0x1E,0x25,0x8,0x1
	.DB  0x1A,0x25,0x8,0x1,0x0,0x1D,0x25,0x8
	.DB  0x2,0x18,0x25,0x8,0x2,0x0,0x1D,0x25
	.DB  0x8,0x3,0x19,0x25,0x8,0x3,0x0,0x1E
	.DB  0x25,0x8,0x4,0x18,0x25,0x8,0x4,0x0
	.DB  0x1D,0x25,0x8,0x5,0x17,0x25,0x8,0x5
	.DB  0x0,0x1E,0x25,0x8,0x6,0x16,0x25,0x8
	.DB  0x5,0x1,0x1E,0x25,0x8,0x7,0x16,0x25
	.DB  0x8,0x6,0x0,0x1D,0x25,0x8,0x8,0x14
	.DB  0x25,0x8,0x7,0x0,0x1E,0x25,0x8,0x9
	.DB  0x13,0x25,0x8,0x8,0x0,0x1D,0x25,0x8
	.DB  0xA,0x12,0x25,0x8,0x9,0x0,0x1E,0x25
	.DB  0x8,0xB,0x11,0x25,0x8,0xA,0x0,0x1E
	.DB  0x25,0x8,0xC,0x11,0x25,0x8,0xB,0x0
	.DB  0x1D,0x26,0x8,0x1,0xF,0x25,0x8,0xC
	.DB  0x0,0x1E,0x26,0x8,0x2,0xE,0x26,0x8
	.DB  0x1,0x0,0x1D,0x26,0x8,0x3,0xF,0x26
	.DB  0x8,0x2,0x0,0x1D,0x26,0x8,0x4,0xD
	.DB  0x26,0x8,0x3,0x0,0x1E,0x26,0x8,0x5
	.DB  0xD,0x26,0x8,0x4,0x0,0x1D,0x26,0x8
	.DB  0x6,0xB,0x26,0x8,0x5,0x0,0x1E,0x26
	.DB  0x8,0x7,0xB,0x26,0x8,0x6,0x0,0x1D
	.DB  0x26,0x8,0x8,0x9,0x26,0x8,0x7,0x0
	.DB  0x1E,0x26,0x8,0x9,0x8,0x26,0x8,0x8
	.DB  0x0,0x1E,0x26,0x8,0xA,0x8,0x26,0x8
	.DB  0x9,0x0,0x1D,0x26,0x8,0xB,0x6,0x26
	.DB  0x8,0xA,0x0,0x1E,0x26,0x8,0xC,0x6
	.DB  0x26,0x8,0xB,0x0,0x1E,0x27,0x8,0x1
	.DB  0x5,0x26,0x8,0xC,0x0,0x1D,0x27,0x8
	.DB  0x2,0x3,0x27,0x8,0x1,0x0,0x1E,0x27
	.DB  0x8,0x3,0x5,0x27,0x8,0x2,0x0,0x1D
	.DB  0x27,0x8,0x4,0x3,0x27,0x8,0x3,0x0
	.DB  0x1E,0x27,0x8,0x5,0x3,0x27,0x8,0x4
	.DB  0x0,0x1D,0x27,0x8,0x6,0x1,0x27,0x8
	.DB  0x5,0x0,0x1D,0x27,0x8,0x6,0x1E,0x27
	.DB  0x8,0x6,0x0,0x1E,0x27,0x8,0x7,0x1E
	.DB  0x27,0x8,0x7,0x0,0x1D,0x27,0x8,0x8
	.DB  0x1C,0x27,0x8,0x8,0x0,0x1E,0x27,0x8
	.DB  0x9,0x1B,0x27,0x8,0x9,0x0,0x1D,0x27
	.DB  0x8,0xA,0x1A,0x27,0x8,0xA,0x0,0x1E
	.DB  0x27,0x8,0xB,0x19,0x27,0x8,0xB,0x0
	.DB  0x1E,0x27,0x8,0xC,0x19,0x27,0x8,0xC
	.DB  0x0,0x1E,0x28,0x8,0x1,0x18,0x28,0x8
	.DB  0x1,0x0,0x1D,0x28,0x8,0x2,0x16,0x28
	.DB  0x8,0x2,0x0,0x1E,0x28,0x8,0x3,0x17
	.DB  0x28,0x8,0x3,0x0,0x1D,0x28,0x8,0x4
	.DB  0x15,0x28,0x8,0x4,0x0,0x1E,0x28,0x8
	.DB  0x5,0x15,0x28,0x8,0x4,0x1,0x1D,0x28
	.DB  0x8,0x6,0x13,0x28,0x8,0x5,0x0,0x1D
	.DB  0x28,0x8,0x7,0x12,0x28,0x8,0x6,0x0
	.DB  0x1D,0x28,0x8,0x8,0x10,0x28,0x8,0x7
	.DB  0x0,0x1E,0x28,0x8,0x9,0xF,0x28,0x8
	.DB  0x8,0x0,0x1D,0x28,0x8,0xA,0xE,0x28
	.DB  0x8,0x9,0x0,0x1E,0x28,0x8,0xB,0xD
	.DB  0x28,0x8,0xA,0x0,0x1E,0x28,0x8,0xC
	.DB  0xD,0x28,0x8,0xB,0x0,0x1E,0x29,0x8
	.DB  0x1,0xC,0x28,0x8,0xC,0x0,0x1D,0x29
	.DB  0x8,0x2,0xA,0x29,0x8,0x1,0x0,0x1E
	.DB  0x29,0x8,0x3,0xC,0x29,0x8,0x2,0x0
	.DB  0x1E,0x29,0x8,0x4,0xB,0x29,0x8,0x3
	.DB  0x0,0x1D,0x29,0x8,0x5,0xA,0x29,0x8
	.DB  0x4,0x0,0x1E,0x29,0x8,0x6,0x9,0x29
	.DB  0x8,0x5,0x0,0x1D,0x29,0x8,0x7,0x8
	.DB  0x29,0x8,0x6,0x0,0x1D,0x29,0x8,0x8
	.DB  0x6,0x29,0x8,0x7,0x0,0x1D,0x29,0x8
	.DB  0x9,0x4,0x29,0x8,0x8,0x0,0x1E,0x29
	.DB  0x8,0xA,0x4,0x29,0x8,0x9,0x0,0x1D
	.DB  0x29,0x8,0xB,0x2,0x29,0x8,0xA,0x0
	.DB  0x1E,0x29,0x8,0xC,0x2,0x29,0x8,0xB
	.DB  0x0,0x1E,0x2A,0x8,0x1,0x1,0x29,0x8
	.DB  0xC,0x0,0x1D,0x2A,0x8,0x1,0x1E,0x2A
	.DB  0x8,0x1,0x0,0x1E,0x2A,0x8,0x3,0x1
	.DB  0x2A,0x8,0x2,0x0,0x1E,0x2A,0x8,0x3
	.DB  0x1F,0x2A,0x8,0x3,0x0,0x1E,0x2A,0x8
	.DB  0x4,0x1E,0x2A,0x8,0x4,0x0,0x1D,0x2A
	.DB  0x8,0x5,0x1D,0x2A,0x8,0x5,0x0,0x1E
	.DB  0x2A,0x8,0x6,0x1C,0x2A,0x8,0x6,0x0
	.DB  0x1D,0x2A,0x8,0x7,0x1B,0x2A,0x8,0x7
	.DB  0x0,0x1D,0x2A,0x8,0x8,0x19,0x2A,0x8
	.DB  0x8,0x0,0x1E,0x2A,0x8,0x9,0x18,0x2A
	.DB  0x8,0x8,0x1,0x1D,0x2A,0x8,0xA,0x17
	.DB  0x2A,0x8,0x9,0x0,0x1D,0x2A,0x8,0xB
	.DB  0x15,0x2A,0x8,0xA,0x0,0x1E,0x2A,0x8
	.DB  0xC,0x15,0x2A,0x8,0xB,0x0,0x1D,0x2B
	.DB  0x8,0x1,0x13,0x2A,0x8,0xC,0x0,0x1E
	.DB  0x2B,0x8,0x2,0x12,0x2B,0x8,0x1,0x0
	.DB  0x1E,0x2B,0x8,0x3,0x14,0x2B,0x8,0x2
	.DB  0x0,0x1E,0x2B,0x8,0x4,0x13,0x2B,0x8
	.DB  0x3,0x0,0x1D,0x2B,0x8,0x5,0x12,0x2B
	.DB  0x8,0x4,0x0,0x1E,0x2B,0x8,0x6,0x11
	.DB  0x2B,0x8,0x5,0x0,0x1D,0x2B,0x8,0x7
	.DB  0x10,0x2B,0x8,0x6,0x0,0x1E,0x2B,0x8
	.DB  0x8,0xF,0x2B,0x8,0x7,0x0,0x1D,0x2B
	.DB  0x8,0x9,0xD,0x2B,0x8,0x8,0x0,0x1E
	.DB  0x2B,0x8,0xA,0xD,0x2B,0x8,0x9,0x0
	.DB  0x1D,0x2B,0x8,0xB,0xB,0x2B,0x8,0xA
	.DB  0x0,0x1D,0x2B,0x8,0xC,0xA,0x2B,0x8
	.DB  0xB,0x0,0x1E,0x2C,0x8,0x1,0x9,0x2B
	.DB  0x8,0xC,0x0,0x1D,0x2C,0x8,0x2,0x7
	.DB  0x2C,0x8,0x1,0x0,0x1E,0x2C,0x8,0x3
	.DB  0x8,0x2C,0x8,0x2,0x0,0x1E,0x2C,0x8
	.DB  0x4,0x7,0x2C,0x8,0x3,0x0,0x1D,0x2C
	.DB  0x8,0x5,0x6,0x2C,0x8,0x4,0x0,0x1E
	.DB  0x2C,0x8,0x6,0x5,0x2C,0x8,0x5,0x0
	.DB  0x1E,0x2C,0x8,0x7,0x5,0x2C,0x8,0x6
	.DB  0x0,0x1D,0x2C,0x8,0x8,0x3,0x2C,0x8
	.DB  0x7,0x0,0x1E,0x2C,0x8,0x9,0x2,0x2C
	.DB  0x8,0x8,0x0,0x1D,0x2C,0x8,0xA,0x1
	.DB  0x2C,0x8,0x9,0x0,0x1E,0x2C,0x8,0xA
	.DB  0x1F,0x2C,0x8,0xA,0x0,0x1D,0x2C,0x8
	.DB  0xB,0x1D,0x2C,0x8,0xB,0x0,0x1D,0x2C
	.DB  0x8,0xC,0x1C,0x2C,0x8,0xC,0x0,0x1E
	.DB  0x2D,0x8,0x1,0x1B,0x2D,0x8,0x1,0x0
	.DB  0x1D,0x2D,0x8,0x2,0x19,0x2D,0x8,0x2
	.DB  0x0,0x1E,0x2D,0x8,0x3,0x1B,0x2D,0x8
	.DB  0x3,0x0,0x1D,0x2D,0x8,0x4,0x19,0x2D
	.DB  0x8,0x4,0x0,0x1E,0x2D,0x8,0x5,0x19
	.DB  0x2D,0x8,0x5,0x0,0x1E,0x2D,0x8,0x6
	.DB  0x18,0x2D,0x8,0x6,0x0,0x1D,0x2D,0x8
	.DB  0x7,0x17,0x2D,0x8,0x6,0x1,0x1E,0x2D
	.DB  0x8,0x8,0x16,0x2D,0x8,0x7,0x0,0x1E
	.DB  0x2D,0x8,0x9,0x15,0x2D,0x8,0x8,0x0
	.DB  0x1D,0x2D,0x8,0xA,0x14,0x2D,0x8,0x9
	.DB  0x0,0x1E,0x2D,0x8,0xB,0x13,0x2D,0x8
	.DB  0xA,0x0,0x1D,0x2D,0x8,0xC,0x12,0x2D
	.DB  0x8,0xB,0x0,0x1E,0x2E,0x8,0x1,0x11
	.DB  0x2D,0x8,0xC,0x0,0x1D,0x2E,0x8,0x2
	.DB  0xF,0x2E,0x8,0x1,0x0,0x1D,0x2E,0x8
	.DB  0x3,0x10,0x2E,0x8,0x2,0x0,0x1E,0x2E
	.DB  0x8,0x4,0xF,0x2E,0x8,0x3,0x0,0x1D
	.DB  0x2E,0x8,0x5,0xE,0x2E,0x8,0x4,0x0
	.DB  0x1E,0x2E,0x8,0x6,0xD,0x2E,0x8,0x5
	.DB  0x0,0x1D,0x2E,0x8,0x7,0xC,0x2E,0x8
	.DB  0x6,0x0,0x1E,0x2E,0x8,0x8,0xB,0x2E
	.DB  0x8,0x7,0x0,0x1E,0x2E,0x8,0x9,0xA
	.DB  0x2E,0x8,0x8,0x0,0x1D,0x2E,0x8,0xA
	.DB  0x9,0x2E,0x8,0x9,0x0,0x1E,0x2E,0x8
	.DB  0xB,0x8,0x2E,0x8,0xA,0x0,0x1E,0x2E
	.DB  0x8,0xC,0x8,0x2E,0x8,0xB,0x0,0x1D
	.DB  0x2F,0x8,0x1,0x6,0x2E,0x8,0xC,0x0
	.DB  0x1E,0x2F,0x8,0x2,0x5,0x2F,0x8,0x1
	.DB  0x0,0x1D,0x2F,0x8,0x3,0x6,0x2F,0x8
	.DB  0x2,0x0,0x1D,0x2F,0x8,0x4,0x4,0x2F
	.DB  0x8,0x3,0x0,0x1E,0x2F,0x8,0x5,0x4
	.DB  0x2F,0x8,0x4,0x0,0x1D,0x2F,0x8,0x6
	.DB  0x2,0x2F,0x8,0x5,0x0,0x1E,0x2F,0x8
	.DB  0x7,0x2,0x2F,0x8,0x6,0x0,0x1D,0x2F
	.DB  0x8,0x7,0x1F,0x2F,0x8,0x7,0x0,0x1E
	.DB  0x2F,0x8,0x8,0x1E,0x2F,0x8,0x8,0x0
	.DB  0x1D,0x2F,0x8,0x9,0x1C,0x2F,0x8,0x9
	.DB  0x0,0x1E,0x2F,0x8,0xA,0x1C,0x2F,0x8
	.DB  0xA,0x0,0x1E,0x2F,0x8,0xB,0x1B,0x2F
	.DB  0x8,0xB,0x0,0x1E,0x2F,0x8,0xC,0x1B
	.DB  0x2F,0x8,0xC,0x0,0x1D,0x30,0x8,0x1
	.DB  0x19,0x30,0x8,0x1,0x0,0x1E,0x30,0x8
	.DB  0x2,0x18,0x30,0x8,0x2,0x0,0x1D,0x30
	.DB  0x8,0x3,0x18,0x30,0x8,0x3,0x0,0x1E
	.DB  0x30,0x8,0x4,0x17,0x30,0x8,0x4,0x0
	.DB  0x1D,0x30,0x8,0x5,0x16,0x30,0x8,0x4
	.DB  0x1,0x1D,0x30,0x8,0x6,0x14,0x30,0x8
	.DB  0x5,0x0,0x1E,0x30,0x8,0x7,0x14,0x30
	.DB  0x8,0x6,0x0,0x1D,0x30,0x8,0x8,0x12
	.DB  0x30,0x8,0x7,0x0,0x1D,0x30,0x8,0x9
	.DB  0x10,0x30,0x8,0x8,0x0,0x1E,0x30,0x8
	.DB  0xA,0x10,0x30,0x8,0x9,0x0,0x1E,0x30
	.DB  0x8,0xB,0xF,0x30,0x8,0xA,0x0,0x1E
	.DB  0x30,0x8,0xC,0xF,0x30,0x8,0xB,0x0
	.DB  0x1D,0x31,0x8,0x1,0xD,0x30,0x8,0xC
	.DB  0x0,0x1E,0x31,0x8,0x2,0xC,0x31,0x8
	.DB  0x1,0x0,0x1E,0x31,0x8,0x3,0xE,0x31
	.DB  0x8,0x2,0x0,0x1D,0x31,0x8,0x4,0xC
	.DB  0x31,0x8,0x3,0x0,0x1E,0x31,0x8,0x5
	.DB  0xC,0x31,0x8,0x4,0x0,0x1D,0x31,0x8
	.DB  0x6,0xA,0x31,0x8,0x5,0x0,0x1D,0x31
	.DB  0x8,0x7,0x9,0x31,0x8,0x6,0x0,0x1D
	.DB  0x31,0x8,0x8,0x7,0x31,0x8,0x7,0x0
	.DB  0x1E,0x31,0x8,0x9,0x6,0x31,0x8,0x8
	.DB  0x0,0x1D,0x31,0x8,0xA,0x5,0x31,0x8
	.DB  0x9,0x0,0x1E,0x31,0x8,0xB,0x4,0x31
	.DB  0x8,0xA,0x0,0x1E,0x31,0x8,0xC,0x4
	.DB  0x31,0x8,0xB,0x0,0x1D,0x32,0x8,0x1
	.DB  0x2,0x31,0x8,0xC,0x0,0x1E,0x32,0x8
	.DB  0x2,0x1,0x32,0x8,0x1,0x0,0x1E,0x32
	.DB  0x8,0x3,0x3,0x32,0x8,0x2,0x0,0x1E
	.DB  0x32,0x8,0x4,0x2,0x32,0x8,0x3,0x0
	.DB  0x1D,0x32,0x8,0x5,0x1,0x32,0x8,0x4
	.DB  0x0,0x1E,0x32,0x8,0x5,0x1F,0x32,0x8
	.DB  0x5,0x0,0x1D,0x32,0x8,0x6,0x1D,0x32
	.DB  0x8,0x6,0x0,0x1D,0x32,0x8,0x7,0x1C
	.DB  0x32,0x8,0x7,0x0,0x1D,0x32,0x8,0x8
	.DB  0x1A,0x32,0x8,0x8,0x0,0x1E,0x32,0x8
	.DB  0x9,0x19,0x32,0x8,0x9,0x0,0x1D,0x32
	.DB  0x8,0xA,0x18,0x32,0x8,0xA,0x0,0x1E
	.DB  0x32,0x8,0xB,0x17,0x32,0x8,0xB,0x0
	.DB  0x1D,0x32,0x8,0xC,0x16,0x32,0x8,0xC
	.DB  0x0,0x1E,0x33,0x8,0x1,0x15,0x33,0x8
	.DB  0x1,0x0,0x1E,0x33,0x8,0x2,0x14,0x33
	.DB  0x8,0x2,0x0,0x1E,0x33,0x8,0x3,0x16
	.DB  0x33,0x8,0x2,0x1,0x1D,0x33,0x8,0x4
	.DB  0x14,0x33,0x8,0x3,0x0,0x1E,0x33,0x8
	.DB  0x5,0x14,0x33,0x8,0x4,0x0,0x1D,0x33
	.DB  0x8,0x6,0x12,0x33,0x8,0x5,0x0,0x1E
	.DB  0x33,0x8,0x7,0x12,0x33,0x8,0x6,0x0
	.DB  0x1D,0x33,0x8,0x8,0x10,0x33,0x8,0x7
	.DB  0x0,0x1D,0x33,0x8,0x9,0xE,0x33,0x8
	.DB  0x8,0x0,0x1E,0x33,0x8,0xA,0xE,0x33
	.DB  0x8,0x9,0x0,0x1D,0x33,0x8,0xB,0xC
	.DB  0x33,0x8,0xA,0x0,0x1E,0x33,0x8,0xC
	.DB  0xC,0x33,0x8,0xB,0x0,0x1D
__glcd_mask:
	.DB  0x0,0x1,0x3,0x7,0xF,0x1F,0x3F,0x7F
	.DB  0xFF
_tbl10_G103:
	.DB  0x10,0x27,0xE8,0x3,0x64,0x0,0xA,0x0
	.DB  0x1,0x0
_tbl16_G103:
	.DB  0x0,0x10,0x0,0x1,0x10,0x0,0x1,0x0

;GLOBAL REGISTER VARIABLES INITIALIZATION
__REG_VARS:
	.DB  0x19,0xE,0x1A,0x0
	.DB  0x0,0x5,0xEA,0x7
	.DB  0x0,0x0

_0x3:
	.DB  0x1
_0x4:
	.DB  0x1
_0x5:
	.DB  0x1,0x2,0x3,0x4,0x5,0x6,0x7,0x8
	.DB  0x9
_0x0:
	.DB  0x43,0x48,0x45,0x20,0x44,0x4F,0x20,0x53
	.DB  0x55,0x41,0x0,0x4C,0x49,0x43,0x48,0x20
	.DB  0x56,0x41,0x4E,0x20,0x4E,0x49,0x45,0x4E
	.DB  0x0,0x54,0x49,0x4D,0x45,0x20,0x25,0x30
	.DB  0x32,0x75,0x3A,0x25,0x30,0x32,0x75,0x3A
	.DB  0x25,0x30,0x32,0x75,0x0,0x44,0x4C,0x20
	.DB  0x25,0x30,0x32,0x75,0x2F,0x25,0x30,0x32
	.DB  0x75,0x2F,0x25,0x30,0x34,0x75,0x0,0x4D
	.DB  0x4F,0x44,0x45,0x20,0x44,0x55,0x4F,0x4E
	.DB  0x47,0x0,0x41,0x4C,0x20,0x25,0x30,0x32
	.DB  0x75,0x2F,0x25,0x30,0x32,0x75,0x2F,0x25
	.DB  0x30,0x34,0x75,0x0,0x4D,0x4F,0x44,0x45
	.DB  0x20,0x41,0x4D,0x20,0x4E,0x0,0x4D,0x4F
	.DB  0x44,0x45,0x20,0x41,0x4D,0x0,0x41,0x4C
	.DB  0x20,0x4E,0x4F,0x20,0x44,0x41,0x54,0x41
	.DB  0x0,0x54,0x48,0x45,0x4D,0x20,0x42,0x41
	.DB  0x4E,0x47,0x20,0x41,0x4D,0x0,0x53,0x55
	.DB  0x41,0x20,0x47,0x49,0x4F,0x0,0x53,0x55
	.DB  0x41,0x20,0x50,0x48,0x55,0x54,0x0,0x53
	.DB  0x55,0x41,0x20,0x4E,0x47,0x41,0x59,0x0
	.DB  0x53,0x55,0x41,0x20,0x54,0x48,0x41,0x4E
	.DB  0x47,0x0,0x53,0x55,0x41,0x20,0x4E,0x41
	.DB  0x4D,0x0,0x42,0x54,0x32,0x20,0x47,0x49
	.DB  0x55,0x3A,0x20,0x53,0x55,0x41,0x0
_0x2100060:
	.DB  0x1
_0x2100000:
	.DB  0x2D,0x4E,0x41,0x4E,0x0,0x49,0x4E,0x46
	.DB  0x0

__GLOBAL_INI_TBL:
	.DW  0x0A
	.DW  0x04
	.DW  __REG_VARS*2

	.DW  0x01
	.DW  _need_redraw
	.DW  _0x3*2

	.DW  0x01
	.DW  _full_redraw
	.DW  _0x4*2

	.DW  0x09
	.DW  _keypad_value
	.DW  _0x5*2

	.DW  0x0B
	.DW  _0x51
	.DW  _0x0*2

	.DW  0x0E
	.DW  _0x51+11
	.DW  _0x0*2+11

	.DW  0x0B
	.DW  _0x51+25
	.DW  _0x0*2+63

	.DW  0x0A
	.DW  _0x51+36
	.DW  _0x0*2+92

	.DW  0x08
	.DW  _0x51+46
	.DW  _0x0*2+102

	.DW  0x0B
	.DW  _0x51+54
	.DW  _0x0*2+110

	.DW  0x0D
	.DW  _0x51+65
	.DW  _0x0*2+121

	.DW  0x08
	.DW  _0x51+78
	.DW  _0x0*2+134

	.DW  0x09
	.DW  _0x51+86
	.DW  _0x0*2+142

	.DW  0x09
	.DW  _0x51+95
	.DW  _0x0*2+151

	.DW  0x0A
	.DW  _0x51+104
	.DW  _0x0*2+160

	.DW  0x08
	.DW  _0x51+114
	.DW  _0x0*2+170

	.DW  0x0D
	.DW  _0x51+122
	.DW  _0x0*2+178

	.DW  0x01
	.DW  __seed_G108
	.DW  _0x2100060*2

_0xFFFFFFFF:
	.DW  0

#define __GLOBAL_INI_TBL_PRESENT 1

__RESET:
	CLI
	CLR  R30
	OUT  EECR,R30

;INTERRUPT VECTORS ARE PLACED
;AT THE START OF FLASH
	LDI  R31,1
	OUT  MCUCR,R31
	OUT  MCUCR,R30
	STS  XMCRB,R30

;CLEAR R2-R14
	LDI  R24,(14-2)+1
	LDI  R26,2
	CLR  R27
__CLEAR_REG:
	ST   X+,R30
	DEC  R24
	BRNE __CLEAR_REG

;CLEAR SRAM
	LDI  R24,LOW(__CLEAR_SRAM_SIZE)
	LDI  R25,HIGH(__CLEAR_SRAM_SIZE)
	LDI  R26,LOW(__SRAM_START)
	LDI  R27,HIGH(__SRAM_START)
__CLEAR_SRAM:
	ST   X+,R30
	SBIW R24,1
	BRNE __CLEAR_SRAM

;GLOBAL VARIABLES INITIALIZATION
	LDI  R30,LOW(__GLOBAL_INI_TBL*2)
	LDI  R31,HIGH(__GLOBAL_INI_TBL*2)
__GLOBAL_INI_NEXT:
	LPM  R24,Z+
	LPM  R25,Z+
	SBIW R24,0
	BREQ __GLOBAL_INI_END
	LPM  R26,Z+
	LPM  R27,Z+
	LPM  R0,Z+
	LPM  R1,Z+
	MOVW R22,R30
	MOVW R30,R0
__GLOBAL_INI_LOOP:
	LPM  R0,Z+
	ST   X+,R0
	SBIW R24,1
	BRNE __GLOBAL_INI_LOOP
	MOVW R30,R22
	RJMP __GLOBAL_INI_NEXT
__GLOBAL_INI_END:

	OUT  RAMPZ,R24

;HARDWARE STACK POINTER INITIALIZATION
	LDI  R30,LOW(__SRAM_END-__HEAP_SIZE)
	OUT  SPL,R30
	LDI  R30,HIGH(__SRAM_END-__HEAP_SIZE)
	OUT  SPH,R30

;DATA STACK POINTER INITIALIZATION
	LDI  R28,LOW(__SRAM_START+__DSTACK_SIZE)
	LDI  R29,HIGH(__SRAM_START+__DSTACK_SIZE)

	JMP  _main

	.ESEG
	.ORG 0

	.DSEG
	.ORG 0x500

	.CSEG
;#include <mega128.h>
	#ifndef __SLEEP_DEFINED__
	#define __SLEEP_DEFINED__
	.EQU __se_bit=0x20
	.EQU __sm_mask=0x1C
	.EQU __sm_powerdown=0x10
	.EQU __sm_powersave=0x18
	.EQU __sm_standby=0x14
	.EQU __sm_ext_standby=0x1C
	.EQU __sm_adc_noise_red=0x08
	.SET power_ctrl_reg=mcucr
	#endif
;#include <glcd.h>
;#include <font5x7.h>
;#include <delay.h>
;#include <stdio.h>
;#include <math.h>
;
;/*
;   Dong ho lich van nien dung ATmega128 + Nokia 5110.
;
;   Chuc nang:
;   - Timer1 tao xung 1 giay, khong dung RTC.
;   - BT1: doi hien thi ngay duong / ngay am.
;   - BT2: nhan giu vao/thoat sua, bam nhanh doi muc sua.
;   - BT3: nhap so 0 khi dang sua.
;   - Keypad 3x3: nhap so 1..9.
;
;   Chan nut theo board trong hinh va cac bai mau:
;   - BT3: PB0
;   - BT1: PB2
;   - BT2: PB3
;*/
;
;#define BT3_ZERO        PINB.0
;#define BT1_MODE        PINB.2
;#define BT2_EDIT        PINB.3
;
;#define BTN_PRESSED     0
;#define BT2_HOLD_MS     1000
;#define DEBOUNCE_TICKS  4
;#define POLL_MS         5
;
;#define DISPLAY_SOLAR   0
;#define DISPLAY_LUNAR   1
;
;#define EDIT_HOUR       0
;#define EDIT_MINUTE     1
;#define EDIT_DAY        2
;#define EDIT_MONTH      3
;#define EDIT_YEAR       4
;
;#define PI_VALUE        3.14159265358979323846
;#define TIME_ZONE       7.0
;
;typedef struct {
;    unsigned int year;
;    unsigned char month;
;    unsigned char day;
;    unsigned char valid;
;} SolarDate;
;
;typedef struct {
;    unsigned char day;
;    unsigned char month;
;    unsigned int year;
;    unsigned char leap;
;    unsigned char valid;
;} LunarDate;
;
;
;typedef struct {
;    unsigned int solar_year;
;    unsigned char solar_month;
;    unsigned char solar_day;
;    unsigned int lunar_year;
;    unsigned char lunar_month;
;    unsigned char leap;
;    unsigned char month_days;
;} LunarMonthStart;
;
;/*
;   Bang moc dau thang am sinh tu thuat toan Ho Ngoc Duc, timezone UTC+7.
;   Pham vi tra cuu: 01/01/2000 den 31/12/2099.
;*/
;flash LunarMonthStart lunar_table[] = {
;    {1999, 12,  8, 1999, 11, 0, 30},
;    {2000,  1,  7, 1999, 12, 0, 29},
;    {2000,  2,  5, 2000,  1, 0, 30},
;    {2000,  3,  6, 2000,  2, 0, 30},
;    {2000,  4,  5, 2000,  3, 0, 29},
;    {2000,  5,  4, 2000,  4, 0, 29},
;    {2000,  6,  2, 2000,  5, 0, 30},
;    {2000,  7,  2, 2000,  6, 0, 29},
;    {2000,  7, 31, 2000,  7, 0, 29},
;    {2000,  8, 29, 2000,  8, 0, 30},
;    {2000,  9, 28, 2000,  9, 0, 29},
;    {2000, 10, 27, 2000, 10, 0, 30},
;    {2000, 11, 26, 2000, 11, 0, 30},
;    {2000, 12, 26, 2000, 12, 0, 29},
;    {2001,  1, 24, 2001,  1, 0, 30},
;    {2001,  2, 23, 2001,  2, 0, 30},
;    {2001,  3, 25, 2001,  3, 0, 29},
;    {2001,  4, 23, 2001,  4, 0, 30},
;    {2001,  5, 23, 2001,  4, 1, 29},
;    {2001,  6, 21, 2001,  5, 0, 30},
;    {2001,  7, 21, 2001,  6, 0, 29},
;    {2001,  8, 19, 2001,  7, 0, 29},
;    {2001,  9, 17, 2001,  8, 0, 30},
;    {2001, 10, 17, 2001,  9, 0, 29},
;    {2001, 11, 15, 2001, 10, 0, 30},
;    {2001, 12, 15, 2001, 11, 0, 29},
;    {2002,  1, 13, 2001, 12, 0, 30},
;    {2002,  2, 12, 2002,  1, 0, 30},
;    {2002,  3, 14, 2002,  2, 0, 30},
;    {2002,  4, 13, 2002,  3, 0, 29},
;    {2002,  5, 12, 2002,  4, 0, 30},
;    {2002,  6, 11, 2002,  5, 0, 29},
;    {2002,  7, 10, 2002,  6, 0, 30},
;    {2002,  8,  9, 2002,  7, 0, 29},
;    {2002,  9,  7, 2002,  8, 0, 29},
;    {2002, 10,  6, 2002,  9, 0, 30},
;    {2002, 11,  5, 2002, 10, 0, 29},
;    {2002, 12,  4, 2002, 11, 0, 30},
;    {2003,  1,  3, 2002, 12, 0, 29},
;    {2003,  2,  1, 2003,  1, 0, 30},
;    {2003,  3,  3, 2003,  2, 0, 30},
;    {2003,  4,  2, 2003,  3, 0, 29},
;    {2003,  5,  1, 2003,  4, 0, 30},
;    {2003,  5, 31, 2003,  5, 0, 30},
;    {2003,  6, 30, 2003,  6, 0, 29},
;    {2003,  7, 29, 2003,  7, 0, 30},
;    {2003,  8, 28, 2003,  8, 0, 29},
;    {2003,  9, 26, 2003,  9, 0, 29},
;    {2003, 10, 25, 2003, 10, 0, 30},
;    {2003, 11, 24, 2003, 11, 0, 29},
;    {2003, 12, 23, 2003, 12, 0, 30},
;    {2004,  1, 22, 2004,  1, 0, 29},
;    {2004,  2, 20, 2004,  2, 0, 30},
;    {2004,  3, 21, 2004,  2, 1, 29},
;    {2004,  4, 19, 2004,  3, 0, 30},
;    {2004,  5, 19, 2004,  4, 0, 30},
;    {2004,  6, 18, 2004,  5, 0, 29},
;    {2004,  7, 17, 2004,  6, 0, 30},
;    {2004,  8, 16, 2004,  7, 0, 29},
;    {2004,  9, 14, 2004,  8, 0, 30},
;    {2004, 10, 14, 2004,  9, 0, 29},
;    {2004, 11, 12, 2004, 10, 0, 30},
;    {2004, 12, 12, 2004, 11, 0, 29},
;    {2005,  1, 10, 2004, 12, 0, 30},
;    {2005,  2,  9, 2005,  1, 0, 29},
;    {2005,  3, 10, 2005,  2, 0, 30},
;    {2005,  4,  9, 2005,  3, 0, 29},
;    {2005,  5,  8, 2005,  4, 0, 30},
;    {2005,  6,  7, 2005,  5, 0, 29},
;    {2005,  7,  6, 2005,  6, 0, 30},
;    {2005,  8,  5, 2005,  7, 0, 30},
;    {2005,  9,  4, 2005,  8, 0, 29},
;    {2005, 10,  3, 2005,  9, 0, 30},
;    {2005, 11,  2, 2005, 10, 0, 29},
;    {2005, 12,  1, 2005, 11, 0, 30},
;    {2005, 12, 31, 2005, 12, 0, 29},
;    {2006,  1, 29, 2006,  1, 0, 30},
;    {2006,  2, 28, 2006,  2, 0, 29},
;    {2006,  3, 29, 2006,  3, 0, 30},
;    {2006,  4, 28, 2006,  4, 0, 29},
;    {2006,  5, 27, 2006,  5, 0, 29},
;    {2006,  6, 25, 2006,  6, 0, 30},
;    {2006,  7, 25, 2006,  7, 0, 30},
;    {2006,  8, 24, 2006,  7, 1, 29},
;    {2006,  9, 22, 2006,  8, 0, 30},
;    {2006, 10, 22, 2006,  9, 0, 30},
;    {2006, 11, 21, 2006, 10, 0, 29},
;    {2006, 12, 20, 2006, 11, 0, 30},
;    {2007,  1, 19, 2006, 12, 0, 29},
;    {2007,  2, 17, 2007,  1, 0, 30},
;    {2007,  3, 19, 2007,  2, 0, 29},
;    {2007,  4, 17, 2007,  3, 0, 30},
;    {2007,  5, 17, 2007,  4, 0, 29},
;    {2007,  6, 15, 2007,  5, 0, 29},
;    {2007,  7, 14, 2007,  6, 0, 30},
;    {2007,  8, 13, 2007,  7, 0, 29},
;    {2007,  9, 11, 2007,  8, 0, 30},
;    {2007, 10, 11, 2007,  9, 0, 30},
;    {2007, 11, 10, 2007, 10, 0, 30},
;    {2007, 12, 10, 2007, 11, 0, 29},
;    {2008,  1,  8, 2007, 12, 0, 30},
;    {2008,  2,  7, 2008,  1, 0, 30},
;    {2008,  3,  8, 2008,  2, 0, 29},
;    {2008,  4,  6, 2008,  3, 0, 29},
;    {2008,  5,  5, 2008,  4, 0, 30},
;    {2008,  6,  4, 2008,  5, 0, 29},
;    {2008,  7,  3, 2008,  6, 0, 29},
;    {2008,  8,  1, 2008,  7, 0, 30},
;    {2008,  8, 31, 2008,  8, 0, 29},
;    {2008,  9, 29, 2008,  9, 0, 30},
;    {2008, 10, 29, 2008, 10, 0, 29},
;    {2008, 11, 27, 2008, 11, 0, 30},
;    {2008, 12, 27, 2008, 12, 0, 30},
;    {2009,  1, 26, 2009,  1, 0, 30},
;    {2009,  2, 25, 2009,  2, 0, 29},
;    {2009,  3, 26, 2009,  3, 0, 30},
;    {2009,  4, 25, 2009,  4, 0, 29},
;    {2009,  5, 24, 2009,  5, 0, 30},
;    {2009,  6, 23, 2009,  5, 1, 29},
;    {2009,  7, 22, 2009,  6, 0, 29},
;    {2009,  8, 20, 2009,  7, 0, 30},
;    {2009,  9, 19, 2009,  8, 0, 29},
;    {2009, 10, 18, 2009,  9, 0, 30},
;    {2009, 11, 17, 2009, 10, 0, 29},
;    {2009, 12, 16, 2009, 11, 0, 30},
;    {2010,  1, 15, 2009, 12, 0, 30},
;    {2010,  2, 14, 2010,  1, 0, 30},
;    {2010,  3, 16, 2010,  2, 0, 29},
;    {2010,  4, 14, 2010,  3, 0, 30},
;    {2010,  5, 14, 2010,  4, 0, 29},
;    {2010,  6, 12, 2010,  5, 0, 30},
;    {2010,  7, 12, 2010,  6, 0, 29},
;    {2010,  8, 10, 2010,  7, 0, 29},
;    {2010,  9,  8, 2010,  8, 0, 30},
;    {2010, 10,  8, 2010,  9, 0, 29},
;    {2010, 11,  6, 2010, 10, 0, 30},
;    {2010, 12,  6, 2010, 11, 0, 29},
;    {2011,  1,  4, 2010, 12, 0, 30},
;    {2011,  2,  3, 2011,  1, 0, 30},
;    {2011,  3,  5, 2011,  2, 0, 29},
;    {2011,  4,  3, 2011,  3, 0, 30},
;    {2011,  5,  3, 2011,  4, 0, 30},
;    {2011,  6,  2, 2011,  5, 0, 29},
;    {2011,  7,  1, 2011,  6, 0, 30},
;    {2011,  7, 31, 2011,  7, 0, 29},
;    {2011,  8, 29, 2011,  8, 0, 29},
;    {2011,  9, 27, 2011,  9, 0, 30},
;    {2011, 10, 27, 2011, 10, 0, 29},
;    {2011, 11, 25, 2011, 11, 0, 30},
;    {2011, 12, 25, 2011, 12, 0, 29},
;    {2012,  1, 23, 2012,  1, 0, 30},
;    {2012,  2, 22, 2012,  2, 0, 29},
;    {2012,  3, 22, 2012,  3, 0, 30},
;    {2012,  4, 21, 2012,  4, 0, 30},
;    {2012,  5, 21, 2012,  4, 1, 29},
;    {2012,  6, 19, 2012,  5, 0, 30},
;    {2012,  7, 19, 2012,  6, 0, 29},
;    {2012,  8, 17, 2012,  7, 0, 30},
;    {2012,  9, 16, 2012,  8, 0, 29},
;    {2012, 10, 15, 2012,  9, 0, 30},
;    {2012, 11, 14, 2012, 10, 0, 29},
;    {2012, 12, 13, 2012, 11, 0, 30},
;    {2013,  1, 12, 2012, 12, 0, 29},
;    {2013,  2, 10, 2013,  1, 0, 30},
;    {2013,  3, 12, 2013,  2, 0, 29},
;    {2013,  4, 10, 2013,  3, 0, 30},
;    {2013,  5, 10, 2013,  4, 0, 29},
;    {2013,  6,  8, 2013,  5, 0, 30},
;    {2013,  7,  8, 2013,  6, 0, 30},
;    {2013,  8,  7, 2013,  7, 0, 29},
;    {2013,  9,  5, 2013,  8, 0, 30},
;    {2013, 10,  5, 2013,  9, 0, 29},
;    {2013, 11,  3, 2013, 10, 0, 30},
;    {2013, 12,  3, 2013, 11, 0, 29},
;    {2014,  1,  1, 2013, 12, 0, 30},
;    {2014,  1, 31, 2014,  1, 0, 29},
;    {2014,  3,  1, 2014,  2, 0, 30},
;    {2014,  3, 31, 2014,  3, 0, 29},
;    {2014,  4, 29, 2014,  4, 0, 30},
;    {2014,  5, 29, 2014,  5, 0, 29},
;    {2014,  6, 27, 2014,  6, 0, 30},
;    {2014,  7, 27, 2014,  7, 0, 29},
;    {2014,  8, 25, 2014,  8, 0, 30},
;    {2014,  9, 24, 2014,  9, 0, 30},
;    {2014, 10, 24, 2014,  9, 1, 29},
;    {2014, 11, 22, 2014, 10, 0, 30},
;    {2014, 12, 22, 2014, 11, 0, 29},
;    {2015,  1, 20, 2014, 12, 0, 30},
;    {2015,  2, 19, 2015,  1, 0, 29},
;    {2015,  3, 20, 2015,  2, 0, 30},
;    {2015,  4, 19, 2015,  3, 0, 29},
;    {2015,  5, 18, 2015,  4, 0, 29},
;    {2015,  6, 16, 2015,  5, 0, 30},
;    {2015,  7, 16, 2015,  6, 0, 29},
;    {2015,  8, 14, 2015,  7, 0, 30},
;    {2015,  9, 13, 2015,  8, 0, 30},
;    {2015, 10, 13, 2015,  9, 0, 30},
;    {2015, 11, 12, 2015, 10, 0, 29},
;    {2015, 12, 11, 2015, 11, 0, 30},
;    {2016,  1, 10, 2015, 12, 0, 29},
;    {2016,  2,  8, 2016,  1, 0, 30},
;    {2016,  3,  9, 2016,  2, 0, 29},
;    {2016,  4,  7, 2016,  3, 0, 30},
;    {2016,  5,  7, 2016,  4, 0, 29},
;    {2016,  6,  5, 2016,  5, 0, 29},
;    {2016,  7,  4, 2016,  6, 0, 30},
;    {2016,  8,  3, 2016,  7, 0, 29},
;    {2016,  9,  1, 2016,  8, 0, 30},
;    {2016, 10,  1, 2016,  9, 0, 30},
;    {2016, 10, 31, 2016, 10, 0, 29},
;    {2016, 11, 29, 2016, 11, 0, 30},
;    {2016, 12, 29, 2016, 12, 0, 30},
;    {2017,  1, 28, 2017,  1, 0, 29},
;    {2017,  2, 26, 2017,  2, 0, 30},
;    {2017,  3, 28, 2017,  3, 0, 29},
;    {2017,  4, 26, 2017,  4, 0, 30},
;    {2017,  5, 26, 2017,  5, 0, 29},
;    {2017,  6, 24, 2017,  6, 0, 29},
;    {2017,  7, 23, 2017,  6, 1, 30},
;    {2017,  8, 22, 2017,  7, 0, 29},
;    {2017,  9, 20, 2017,  8, 0, 30},
;    {2017, 10, 20, 2017,  9, 0, 29},
;    {2017, 11, 18, 2017, 10, 0, 30},
;    {2017, 12, 18, 2017, 11, 0, 30},
;    {2018,  1, 17, 2017, 12, 0, 30},
;    {2018,  2, 16, 2018,  1, 0, 29},
;    {2018,  3, 17, 2018,  2, 0, 30},
;    {2018,  4, 16, 2018,  3, 0, 29},
;    {2018,  5, 15, 2018,  4, 0, 30},
;    {2018,  6, 14, 2018,  5, 0, 29},
;    {2018,  7, 13, 2018,  6, 0, 29},
;    {2018,  8, 11, 2018,  7, 0, 30},
;    {2018,  9, 10, 2018,  8, 0, 29},
;    {2018, 10,  9, 2018,  9, 0, 29},
;    {2018, 11,  7, 2018, 10, 0, 30},
;    {2018, 12,  7, 2018, 11, 0, 30},
;    {2019,  1,  6, 2018, 12, 0, 30},
;    {2019,  2,  5, 2019,  1, 0, 29},
;    {2019,  3,  6, 2019,  2, 0, 30},
;    {2019,  4,  5, 2019,  3, 0, 30},
;    {2019,  5,  5, 2019,  4, 0, 29},
;    {2019,  6,  3, 2019,  5, 0, 30},
;    {2019,  7,  3, 2019,  6, 0, 29},
;    {2019,  8,  1, 2019,  7, 0, 29},
;    {2019,  8, 30, 2019,  8, 0, 30},
;    {2019,  9, 29, 2019,  9, 0, 29},
;    {2019, 10, 28, 2019, 10, 0, 29},
;    {2019, 11, 26, 2019, 11, 0, 30},
;    {2019, 12, 26, 2019, 12, 0, 30},
;    {2020,  1, 25, 2020,  1, 0, 29},
;    {2020,  2, 23, 2020,  2, 0, 30},
;    {2020,  3, 24, 2020,  3, 0, 30},
;    {2020,  4, 23, 2020,  4, 0, 30},
;    {2020,  5, 23, 2020,  4, 1, 29},
;    {2020,  6, 21, 2020,  5, 0, 30},
;    {2020,  7, 21, 2020,  6, 0, 29},
;    {2020,  8, 19, 2020,  7, 0, 29},
;    {2020,  9, 17, 2020,  8, 0, 30},
;    {2020, 10, 17, 2020,  9, 0, 29},
;    {2020, 11, 15, 2020, 10, 0, 29},
;    {2020, 12, 14, 2020, 11, 0, 30},
;    {2021,  1, 13, 2020, 12, 0, 30},
;    {2021,  2, 12, 2021,  1, 0, 29},
;    {2021,  3, 13, 2021,  2, 0, 30},
;    {2021,  4, 12, 2021,  3, 0, 30},
;    {2021,  5, 12, 2021,  4, 0, 29},
;    {2021,  6, 10, 2021,  5, 0, 30},
;    {2021,  7, 10, 2021,  6, 0, 29},
;    {2021,  8,  8, 2021,  7, 0, 30},
;    {2021,  9,  7, 2021,  8, 0, 29},
;    {2021, 10,  6, 2021,  9, 0, 30},
;    {2021, 11,  5, 2021, 10, 0, 29},
;    {2021, 12,  4, 2021, 11, 0, 30},
;    {2022,  1,  3, 2021, 12, 0, 29},
;    {2022,  2,  1, 2022,  1, 0, 30},
;    {2022,  3,  3, 2022,  2, 0, 29},
;    {2022,  4,  1, 2022,  3, 0, 30},
;    {2022,  5,  1, 2022,  4, 0, 29},
;    {2022,  5, 30, 2022,  5, 0, 30},
;    {2022,  6, 29, 2022,  6, 0, 30},
;    {2022,  7, 29, 2022,  7, 0, 29},
;    {2022,  8, 27, 2022,  8, 0, 30},
;    {2022,  9, 26, 2022,  9, 0, 29},
;    {2022, 10, 25, 2022, 10, 0, 30},
;    {2022, 11, 24, 2022, 11, 0, 29},
;    {2022, 12, 23, 2022, 12, 0, 30},
;    {2023,  1, 22, 2023,  1, 0, 29},
;    {2023,  2, 20, 2023,  2, 0, 30},
;    {2023,  3, 22, 2023,  2, 1, 29},
;    {2023,  4, 20, 2023,  3, 0, 29},
;    {2023,  5, 19, 2023,  4, 0, 30},
;    {2023,  6, 18, 2023,  5, 0, 30},
;    {2023,  7, 18, 2023,  6, 0, 29},
;    {2023,  8, 16, 2023,  7, 0, 30},
;    {2023,  9, 15, 2023,  8, 0, 30},
;    {2023, 10, 15, 2023,  9, 0, 29},
;    {2023, 11, 13, 2023, 10, 0, 30},
;    {2023, 12, 13, 2023, 11, 0, 29},
;    {2024,  1, 11, 2023, 12, 0, 30},
;    {2024,  2, 10, 2024,  1, 0, 29},
;    {2024,  3, 10, 2024,  2, 0, 30},
;    {2024,  4,  9, 2024,  3, 0, 29},
;    {2024,  5,  8, 2024,  4, 0, 29},
;    {2024,  6,  6, 2024,  5, 0, 30},
;    {2024,  7,  6, 2024,  6, 0, 29},
;    {2024,  8,  4, 2024,  7, 0, 30},
;    {2024,  9,  3, 2024,  8, 0, 30},
;    {2024, 10,  3, 2024,  9, 0, 29},
;    {2024, 11,  1, 2024, 10, 0, 30},
;    {2024, 12,  1, 2024, 11, 0, 30},
;    {2024, 12, 31, 2024, 12, 0, 29},
;    {2025,  1, 29, 2025,  1, 0, 30},
;    {2025,  2, 28, 2025,  2, 0, 29},
;    {2025,  3, 29, 2025,  3, 0, 30},
;    {2025,  4, 28, 2025,  4, 0, 29},
;    {2025,  5, 27, 2025,  5, 0, 29},
;    {2025,  6, 25, 2025,  6, 0, 30},
;    {2025,  7, 25, 2025,  6, 1, 29},
;    {2025,  8, 23, 2025,  7, 0, 30},
;    {2025,  9, 22, 2025,  8, 0, 29},
;    {2025, 10, 21, 2025,  9, 0, 30},
;    {2025, 11, 20, 2025, 10, 0, 30},
;    {2025, 12, 20, 2025, 11, 0, 30},
;    {2026,  1, 19, 2025, 12, 0, 29},
;    {2026,  2, 17, 2026,  1, 0, 30},
;    {2026,  3, 19, 2026,  2, 0, 29},
;    {2026,  4, 17, 2026,  3, 0, 30},
;    {2026,  5, 17, 2026,  4, 0, 29},
;    {2026,  6, 15, 2026,  5, 0, 29},
;    {2026,  7, 14, 2026,  6, 0, 30},
;    {2026,  8, 13, 2026,  7, 0, 29},
;    {2026,  9, 11, 2026,  8, 0, 29},
;    {2026, 10, 10, 2026,  9, 0, 30},
;    {2026, 11,  9, 2026, 10, 0, 30},
;    {2026, 12,  9, 2026, 11, 0, 30},
;    {2027,  1,  8, 2026, 12, 0, 29},
;    {2027,  2,  6, 2027,  1, 0, 30},
;    {2027,  3,  8, 2027,  2, 0, 30},
;    {2027,  4,  7, 2027,  3, 0, 29},
;    {2027,  5,  6, 2027,  4, 0, 30},
;    {2027,  6,  5, 2027,  5, 0, 29},
;    {2027,  7,  4, 2027,  6, 0, 29},
;    {2027,  8,  2, 2027,  7, 0, 30},
;    {2027,  9,  1, 2027,  8, 0, 29},
;    {2027,  9, 30, 2027,  9, 0, 29},
;    {2027, 10, 29, 2027, 10, 0, 30},
;    {2027, 11, 28, 2027, 11, 0, 30},
;    {2027, 12, 28, 2027, 12, 0, 29},
;    {2028,  1, 26, 2028,  1, 0, 30},
;    {2028,  2, 25, 2028,  2, 0, 30},
;    {2028,  3, 26, 2028,  3, 0, 30},
;    {2028,  4, 25, 2028,  4, 0, 29},
;    {2028,  5, 24, 2028,  5, 0, 30},
;    {2028,  6, 23, 2028,  5, 1, 29},
;    {2028,  7, 22, 2028,  6, 0, 29},
;    {2028,  8, 20, 2028,  7, 0, 30},
;    {2028,  9, 19, 2028,  8, 0, 29},
;    {2028, 10, 18, 2028,  9, 0, 29},
;    {2028, 11, 16, 2028, 10, 0, 30},
;    {2028, 12, 16, 2028, 11, 0, 30},
;    {2029,  1, 15, 2028, 12, 0, 29},
;    {2029,  2, 13, 2029,  1, 0, 30},
;    {2029,  3, 15, 2029,  2, 0, 30},
;    {2029,  4, 14, 2029,  3, 0, 29},
;    {2029,  5, 13, 2029,  4, 0, 30},
;    {2029,  6, 12, 2029,  5, 0, 29},
;    {2029,  7, 11, 2029,  6, 0, 30},
;    {2029,  8, 10, 2029,  7, 0, 29},
;    {2029,  9,  8, 2029,  8, 0, 30},
;    {2029, 10,  8, 2029,  9, 0, 29},
;    {2029, 11,  6, 2029, 10, 0, 29},
;    {2029, 12,  5, 2029, 11, 0, 30},
;    {2030,  1,  4, 2029, 12, 0, 29},
;    {2030,  2,  2, 2030,  1, 0, 30},
;    {2030,  3,  4, 2030,  2, 0, 30},
;    {2030,  4,  3, 2030,  3, 0, 29},
;    {2030,  5,  2, 2030,  4, 0, 30},
;    {2030,  6,  1, 2030,  5, 0, 30},
;    {2030,  7,  1, 2030,  6, 0, 29},
;    {2030,  7, 30, 2030,  7, 0, 30},
;    {2030,  8, 29, 2030,  8, 0, 29},
;    {2030,  9, 27, 2030,  9, 0, 30},
;    {2030, 10, 27, 2030, 10, 0, 29},
;    {2030, 11, 25, 2030, 11, 0, 30},
;    {2030, 12, 25, 2030, 12, 0, 29},
;    {2031,  1, 23, 2031,  1, 0, 29},
;    {2031,  2, 21, 2031,  2, 0, 30},
;    {2031,  3, 23, 2031,  3, 0, 29},
;    {2031,  4, 21, 2031,  3, 1, 30},
;    {2031,  5, 21, 2031,  4, 0, 30},
;    {2031,  6, 20, 2031,  5, 0, 29},
;    {2031,  7, 19, 2031,  6, 0, 30},
;    {2031,  8, 18, 2031,  7, 0, 30},
;    {2031,  9, 17, 2031,  8, 0, 29},
;    {2031, 10, 16, 2031,  9, 0, 30},
;    {2031, 11, 15, 2031, 10, 0, 29},
;    {2031, 12, 14, 2031, 11, 0, 30},
;    {2032,  1, 13, 2031, 12, 0, 29},
;    {2032,  2, 11, 2032,  1, 0, 29},
;    {2032,  3, 11, 2032,  2, 0, 30},
;    {2032,  4, 10, 2032,  3, 0, 29},
;    {2032,  5,  9, 2032,  4, 0, 30},
;    {2032,  6,  8, 2032,  5, 0, 29},
;    {2032,  7,  7, 2032,  6, 0, 30},
;    {2032,  8,  6, 2032,  7, 0, 30},
;    {2032,  9,  5, 2032,  8, 0, 29},
;    {2032, 10,  4, 2032,  9, 0, 30},
;    {2032, 11,  3, 2032, 10, 0, 30},
;    {2032, 12,  3, 2032, 11, 0, 29},
;    {2033,  1,  1, 2032, 12, 0, 30},
;    {2033,  1, 31, 2033,  1, 0, 29},
;    {2033,  3,  1, 2033,  2, 0, 30},
;    {2033,  3, 31, 2033,  3, 0, 29},
;    {2033,  4, 29, 2033,  4, 0, 29},
;    {2033,  5, 28, 2033,  5, 0, 30},
;    {2033,  6, 27, 2033,  6, 0, 29},
;    {2033,  7, 26, 2033,  7, 0, 30},
;    {2033,  8, 25, 2033,  8, 0, 29},
;    {2033,  9, 23, 2033,  9, 0, 30},
;    {2033, 10, 23, 2033, 10, 0, 30},
;    {2033, 11, 22, 2033, 11, 0, 30},
;    {2033, 12, 22, 2033, 11, 1, 29},
;    {2034,  1, 20, 2033, 12, 0, 30},
;    {2034,  2, 19, 2034,  1, 0, 29},
;    {2034,  3, 20, 2034,  2, 0, 30},
;    {2034,  4, 19, 2034,  3, 0, 29},
;    {2034,  5, 18, 2034,  4, 0, 29},
;    {2034,  6, 16, 2034,  5, 0, 30},
;    {2034,  7, 16, 2034,  6, 0, 29},
;    {2034,  8, 14, 2034,  7, 0, 29},
;    {2034,  9, 12, 2034,  8, 0, 30},
;    {2034, 10, 12, 2034,  9, 0, 30},
;    {2034, 11, 11, 2034, 10, 0, 30},
;    {2034, 12, 11, 2034, 11, 0, 29},
;    {2035,  1,  9, 2034, 12, 0, 30},
;    {2035,  2,  8, 2035,  1, 0, 30},
;    {2035,  3, 10, 2035,  2, 0, 29},
;    {2035,  4,  8, 2035,  3, 0, 30},
;    {2035,  5,  8, 2035,  4, 0, 29},
;    {2035,  6,  6, 2035,  5, 0, 29},
;    {2035,  7,  5, 2035,  6, 0, 30},
;    {2035,  8,  4, 2035,  7, 0, 29},
;    {2035,  9,  2, 2035,  8, 0, 29},
;    {2035, 10,  1, 2035,  9, 0, 30},
;    {2035, 10, 31, 2035, 10, 0, 30},
;    {2035, 11, 30, 2035, 11, 0, 29},
;    {2035, 12, 29, 2035, 12, 0, 30},
;    {2036,  1, 28, 2036,  1, 0, 30},
;    {2036,  2, 27, 2036,  2, 0, 30},
;    {2036,  3, 28, 2036,  3, 0, 29},
;    {2036,  4, 26, 2036,  4, 0, 30},
;    {2036,  5, 26, 2036,  5, 0, 29},
;    {2036,  6, 24, 2036,  6, 0, 29},
;    {2036,  7, 23, 2036,  6, 1, 30},
;    {2036,  8, 22, 2036,  7, 0, 29},
;    {2036,  9, 20, 2036,  8, 0, 29},
;    {2036, 10, 19, 2036,  9, 0, 30},
;    {2036, 11, 18, 2036, 10, 0, 29},
;    {2036, 12, 17, 2036, 11, 0, 30},
;    {2037,  1, 16, 2036, 12, 0, 30},
;    {2037,  2, 15, 2037,  1, 0, 30},
;    {2037,  3, 17, 2037,  2, 0, 29},
;    {2037,  4, 15, 2037,  3, 0, 30},
;    {2037,  5, 15, 2037,  4, 0, 30},
;    {2037,  6, 14, 2037,  5, 0, 29},
;    {2037,  7, 13, 2037,  6, 0, 29},
;    {2037,  8, 11, 2037,  7, 0, 30},
;    {2037,  9, 10, 2037,  8, 0, 29},
;    {2037, 10,  9, 2037,  9, 0, 29},
;    {2037, 11,  7, 2037, 10, 0, 30},
;    {2037, 12,  7, 2037, 11, 0, 29},
;    {2038,  1,  5, 2037, 12, 0, 30},
;    {2038,  2,  4, 2038,  1, 0, 30},
;    {2038,  3,  6, 2038,  2, 0, 29},
;    {2038,  4,  4, 2038,  3, 0, 30},
;    {2038,  5,  4, 2038,  4, 0, 30},
;    {2038,  6,  3, 2038,  5, 0, 29},
;    {2038,  7,  2, 2038,  6, 0, 30},
;    {2038,  8,  1, 2038,  7, 0, 29},
;    {2038,  8, 30, 2038,  8, 0, 30},
;    {2038,  9, 29, 2038,  9, 0, 29},
;    {2038, 10, 28, 2038, 10, 0, 29},
;    {2038, 11, 26, 2038, 11, 0, 30},
;    {2038, 12, 26, 2038, 12, 0, 29},
;    {2039,  1, 24, 2039,  1, 0, 30},
;    {2039,  2, 23, 2039,  2, 0, 30},
;    {2039,  3, 25, 2039,  3, 0, 29},
;    {2039,  4, 23, 2039,  4, 0, 30},
;    {2039,  5, 23, 2039,  5, 0, 30},
;    {2039,  6, 22, 2039,  5, 1, 29},
;    {2039,  7, 21, 2039,  6, 0, 30},
;    {2039,  8, 20, 2039,  7, 0, 29},
;    {2039,  9, 18, 2039,  8, 0, 30},
;    {2039, 10, 18, 2039,  9, 0, 29},
;    {2039, 11, 16, 2039, 10, 0, 29},
;    {2039, 12, 15, 2039, 11, 0, 30},
;    {2040,  1, 14, 2039, 12, 0, 29},
;    {2040,  2, 12, 2040,  1, 0, 30},
;    {2040,  3, 13, 2040,  2, 0, 29},
;    {2040,  4, 11, 2040,  3, 0, 30},
;    {2040,  5, 11, 2040,  4, 0, 30},
;    {2040,  6, 10, 2040,  5, 0, 29},
;    {2040,  7,  9, 2040,  6, 0, 30},
;    {2040,  8,  8, 2040,  7, 0, 29},
;    {2040,  9,  6, 2040,  8, 0, 30},
;    {2040, 10,  6, 2040,  9, 0, 30},
;    {2040, 11,  5, 2040, 10, 0, 29},
;    {2040, 12,  4, 2040, 11, 0, 30},
;    {2041,  1,  3, 2040, 12, 0, 29},
;    {2041,  2,  1, 2041,  1, 0, 29},
;    {2041,  3,  2, 2041,  2, 0, 30},
;    {2041,  4,  1, 2041,  3, 0, 29},
;    {2041,  4, 30, 2041,  4, 0, 30},
;    {2041,  5, 30, 2041,  5, 0, 29},
;    {2041,  6, 28, 2041,  6, 0, 30},
;    {2041,  7, 28, 2041,  7, 0, 29},
;    {2041,  8, 26, 2041,  8, 0, 30},
;    {2041,  9, 25, 2041,  9, 0, 30},
;    {2041, 10, 25, 2041, 10, 0, 30},
;    {2041, 11, 24, 2041, 11, 0, 29},
;    {2041, 12, 23, 2041, 12, 0, 30},
;    {2042,  1, 22, 2042,  1, 0, 29},
;    {2042,  2, 20, 2042,  2, 0, 30},
;    {2042,  3, 22, 2042,  2, 1, 29},
;    {2042,  4, 20, 2042,  3, 0, 29},
;    {2042,  5, 19, 2042,  4, 0, 30},
;    {2042,  6, 18, 2042,  5, 0, 29},
;    {2042,  7, 17, 2042,  6, 0, 30},
;    {2042,  8, 16, 2042,  7, 0, 29},
;    {2042,  9, 14, 2042,  8, 0, 30},
;    {2042, 10, 14, 2042,  9, 0, 30},
;    {2042, 11, 13, 2042, 10, 0, 29},
;    {2042, 12, 12, 2042, 11, 0, 30},
;    {2043,  1, 11, 2042, 12, 0, 30},
;    {2043,  2, 10, 2043,  1, 0, 29},
;    {2043,  3, 11, 2043,  2, 0, 30},
;    {2043,  4, 10, 2043,  3, 0, 29},
;    {2043,  5,  9, 2043,  4, 0, 29},
;    {2043,  6,  7, 2043,  5, 0, 30},
;    {2043,  7,  7, 2043,  6, 0, 29},
;    {2043,  8,  5, 2043,  7, 0, 29},
;    {2043,  9,  3, 2043,  8, 0, 30},
;    {2043, 10,  3, 2043,  9, 0, 30},
;    {2043, 11,  2, 2043, 10, 0, 29},
;    {2043, 12,  1, 2043, 11, 0, 30},
;    {2043, 12, 31, 2043, 12, 0, 30},
;    {2044,  1, 30, 2044,  1, 0, 30},
;    {2044,  2, 29, 2044,  2, 0, 29},
;    {2044,  3, 29, 2044,  3, 0, 30},
;    {2044,  4, 28, 2044,  4, 0, 29},
;    {2044,  5, 27, 2044,  5, 0, 29},
;    {2044,  6, 25, 2044,  6, 0, 30},
;    {2044,  7, 25, 2044,  7, 0, 29},
;    {2044,  8, 23, 2044,  7, 1, 29},
;    {2044,  9, 21, 2044,  8, 0, 30},
;    {2044, 10, 21, 2044,  9, 0, 29},
;    {2044, 11, 19, 2044, 10, 0, 30},
;    {2044, 12, 19, 2044, 11, 0, 30},
;    {2045,  1, 18, 2044, 12, 0, 30},
;    {2045,  2, 17, 2045,  1, 0, 30},
;    {2045,  3, 19, 2045,  2, 0, 29},
;    {2045,  4, 17, 2045,  3, 0, 30},
;    {2045,  5, 17, 2045,  4, 0, 29},
;    {2045,  6, 15, 2045,  5, 0, 29},
;    {2045,  7, 14, 2045,  6, 0, 30},
;    {2045,  8, 13, 2045,  7, 0, 29},
;    {2045,  9, 11, 2045,  8, 0, 29},
;    {2045, 10, 10, 2045,  9, 0, 30},
;    {2045, 11,  9, 2045, 10, 0, 29},
;    {2045, 12,  8, 2045, 11, 0, 30},
;    {2046,  1,  7, 2045, 12, 0, 30},
;    {2046,  2,  6, 2046,  1, 0, 30},
;    {2046,  3,  8, 2046,  2, 0, 29},
;    {2046,  4,  6, 2046,  3, 0, 30},
;    {2046,  5,  6, 2046,  4, 0, 29},
;    {2046,  6,  4, 2046,  5, 0, 30},
;    {2046,  7,  4, 2046,  6, 0, 29},
;    {2046,  8,  2, 2046,  7, 0, 30},
;    {2046,  9,  1, 2046,  8, 0, 29},
;    {2046,  9, 30, 2046,  9, 0, 29},
;    {2046, 10, 29, 2046, 10, 0, 30},
;    {2046, 11, 28, 2046, 11, 0, 29},
;    {2046, 12, 27, 2046, 12, 0, 30},
;    {2047,  1, 26, 2047,  1, 0, 30},
;    {2047,  2, 25, 2047,  2, 0, 29},
;    {2047,  3, 26, 2047,  3, 0, 30},
;    {2047,  4, 25, 2047,  4, 0, 30},
;    {2047,  5, 25, 2047,  5, 0, 29},
;    {2047,  6, 23, 2047,  5, 1, 30},
;    {2047,  7, 23, 2047,  6, 0, 29},
;    {2047,  8, 21, 2047,  7, 0, 30},
;    {2047,  9, 20, 2047,  8, 0, 29},
;    {2047, 10, 19, 2047,  9, 0, 29},
;    {2047, 11, 17, 2047, 10, 0, 30},
;    {2047, 12, 17, 2047, 11, 0, 29},
;    {2048,  1, 15, 2047, 12, 0, 30},
;    {2048,  2, 14, 2048,  1, 0, 29},
;    {2048,  3, 14, 2048,  2, 0, 30},
;    {2048,  4, 13, 2048,  3, 0, 30},
;    {2048,  5, 13, 2048,  4, 0, 29},
;    {2048,  6, 11, 2048,  5, 0, 30},
;    {2048,  7, 11, 2048,  6, 0, 30},
;    {2048,  8, 10, 2048,  7, 0, 29},
;    {2048,  9,  8, 2048,  8, 0, 30},
;    {2048, 10,  8, 2048,  9, 0, 29},
;    {2048, 11,  6, 2048, 10, 0, 29},
;    {2048, 12,  5, 2048, 11, 0, 30},
;    {2049,  1,  4, 2048, 12, 0, 29},
;    {2049,  2,  2, 2049,  1, 0, 30},
;    {2049,  3,  4, 2049,  2, 0, 29},
;    {2049,  4,  2, 2049,  3, 0, 30},
;    {2049,  5,  2, 2049,  4, 0, 29},
;    {2049,  5, 31, 2049,  5, 0, 30},
;    {2049,  6, 30, 2049,  6, 0, 30},
;    {2049,  7, 30, 2049,  7, 0, 29},
;    {2049,  8, 28, 2049,  8, 0, 30},
;    {2049,  9, 27, 2049,  9, 0, 29},
;    {2049, 10, 26, 2049, 10, 0, 30},
;    {2049, 11, 25, 2049, 11, 0, 30},
;    {2049, 12, 25, 2049, 12, 0, 29},
;    {2050,  1, 23, 2050,  1, 0, 29},
;    {2050,  2, 21, 2050,  2, 0, 30},
;    {2050,  3, 23, 2050,  3, 0, 29},
;    {2050,  4, 21, 2050,  3, 1, 30},
;    {2050,  5, 21, 2050,  4, 0, 29},
;    {2050,  6, 19, 2050,  5, 0, 30},
;    {2050,  7, 19, 2050,  6, 0, 29},
;    {2050,  8, 17, 2050,  7, 0, 30},
;    {2050,  9, 16, 2050,  8, 0, 30},
;    {2050, 10, 16, 2050,  9, 0, 29},
;    {2050, 11, 14, 2050, 10, 0, 30},
;    {2050, 12, 14, 2050, 11, 0, 30},
;    {2051,  1, 13, 2050, 12, 0, 29},
;    {2051,  2, 11, 2051,  1, 0, 29},
;    {2051,  3, 12, 2051,  2, 0, 30},
;    {2051,  4, 11, 2051,  3, 0, 29},
;    {2051,  5, 10, 2051,  4, 0, 30},
;    {2051,  6,  9, 2051,  5, 0, 29},
;    {2051,  7,  8, 2051,  6, 0, 29},
;    {2051,  8,  6, 2051,  7, 0, 30},
;    {2051,  9,  5, 2051,  8, 0, 30},
;    {2051, 10,  5, 2051,  9, 0, 29},
;    {2051, 11,  3, 2051, 10, 0, 30},
;    {2051, 12,  3, 2051, 11, 0, 30},
;    {2052,  1,  2, 2051, 12, 0, 30},
;    {2052,  2,  1, 2052,  1, 0, 29},
;    {2052,  3,  1, 2052,  2, 0, 30},
;    {2052,  3, 31, 2052,  3, 0, 29},
;    {2052,  4, 29, 2052,  4, 0, 29},
;    {2052,  5, 28, 2052,  5, 0, 30},
;    {2052,  6, 27, 2052,  6, 0, 29},
;    {2052,  7, 26, 2052,  7, 0, 29},
;    {2052,  8, 24, 2052,  8, 0, 30},
;    {2052,  9, 23, 2052,  8, 1, 29},
;    {2052, 10, 22, 2052,  9, 0, 30},
;    {2052, 11, 21, 2052, 10, 0, 30},
;    {2052, 12, 21, 2052, 11, 0, 30},
;    {2053,  1, 20, 2052, 12, 0, 29},
;    {2053,  2, 18, 2053,  1, 0, 30},
;    {2053,  3, 20, 2053,  2, 0, 30},
;    {2053,  4, 19, 2053,  3, 0, 29},
;    {2053,  5, 18, 2053,  4, 0, 29},
;    {2053,  6, 16, 2053,  5, 0, 30},
;    {2053,  7, 16, 2053,  6, 0, 29},
;    {2053,  8, 14, 2053,  7, 0, 29},
;    {2053,  9, 12, 2053,  8, 0, 30},
;    {2053, 10, 12, 2053,  9, 0, 29},
;    {2053, 11, 10, 2053, 10, 0, 30},
;    {2053, 12, 10, 2053, 11, 0, 30},
;    {2054,  1,  9, 2053, 12, 0, 30},
;    {2054,  2,  8, 2054,  1, 0, 29},
;    {2054,  3,  9, 2054,  2, 0, 30},
;    {2054,  4,  8, 2054,  3, 0, 30},
;    {2054,  5,  8, 2054,  4, 0, 29},
;    {2054,  6,  6, 2054,  5, 0, 29},
;    {2054,  7,  5, 2054,  6, 0, 30},
;    {2054,  8,  4, 2054,  7, 0, 29},
;    {2054,  9,  2, 2054,  8, 0, 29},
;    {2054, 10,  1, 2054,  9, 0, 30},
;    {2054, 10, 31, 2054, 10, 0, 29},
;    {2054, 11, 29, 2054, 11, 0, 30},
;    {2054, 12, 29, 2054, 12, 0, 30},
;    {2055,  1, 28, 2055,  1, 0, 29},
;    {2055,  2, 26, 2055,  2, 0, 30},
;    {2055,  3, 28, 2055,  3, 0, 30},
;    {2055,  4, 27, 2055,  4, 0, 29},
;    {2055,  5, 26, 2055,  5, 0, 30},
;    {2055,  6, 25, 2055,  6, 0, 29},
;    {2055,  7, 24, 2055,  6, 1, 30},
;    {2055,  8, 23, 2055,  7, 0, 29},
;    {2055,  9, 21, 2055,  8, 0, 29},
;    {2055, 10, 20, 2055,  9, 0, 30},
;    {2055, 11, 19, 2055, 10, 0, 29},
;    {2055, 12, 18, 2055, 11, 0, 30},
;    {2056,  1, 17, 2055, 12, 0, 29},
;    {2056,  2, 15, 2056,  1, 0, 30},
;    {2056,  3, 16, 2056,  2, 0, 30},
;    {2056,  4, 15, 2056,  3, 0, 29},
;    {2056,  5, 14, 2056,  4, 0, 30},
;    {2056,  6, 13, 2056,  5, 0, 30},
;    {2056,  7, 13, 2056,  6, 0, 29},
;    {2056,  8, 11, 2056,  7, 0, 30},
;    {2056,  9, 10, 2056,  8, 0, 29},
;    {2056, 10,  9, 2056,  9, 0, 29},
;    {2056, 11,  7, 2056, 10, 0, 30},
;    {2056, 12,  7, 2056, 11, 0, 29},
;    {2057,  1,  5, 2056, 12, 0, 30},
;    {2057,  2,  4, 2057,  1, 0, 29},
;    {2057,  3,  5, 2057,  2, 0, 30},
;    {2057,  4,  4, 2057,  3, 0, 29},
;    {2057,  5,  3, 2057,  4, 0, 30},
;    {2057,  6,  2, 2057,  5, 0, 30},
;    {2057,  7,  2, 2057,  6, 0, 29},
;    {2057,  7, 31, 2057,  7, 0, 30},
;    {2057,  8, 30, 2057,  8, 0, 29},
;    {2057,  9, 28, 2057,  9, 0, 30},
;    {2057, 10, 28, 2057, 10, 0, 29},
;    {2057, 11, 26, 2057, 11, 0, 30},
;    {2057, 12, 26, 2057, 12, 0, 29},
;    {2058,  1, 24, 2058,  1, 0, 30},
;    {2058,  2, 23, 2058,  2, 0, 29},
;    {2058,  3, 24, 2058,  3, 0, 30},
;    {2058,  4, 23, 2058,  4, 0, 29},
;    {2058,  5, 22, 2058,  4, 1, 30},
;    {2058,  6, 21, 2058,  5, 0, 29},
;    {2058,  7, 20, 2058,  6, 0, 30},
;    {2058,  8, 19, 2058,  7, 0, 30},
;    {2058,  9, 18, 2058,  8, 0, 29},
;    {2058, 10, 17, 2058,  9, 0, 30},
;    {2058, 11, 16, 2058, 10, 0, 29},
;    {2058, 12, 15, 2058, 11, 0, 30},
;    {2059,  1, 14, 2058, 12, 0, 29},
;    {2059,  2, 12, 2059,  1, 0, 30},
;    {2059,  3, 14, 2059,  2, 0, 29},
;    {2059,  4, 12, 2059,  3, 0, 30},
;    {2059,  5, 12, 2059,  4, 0, 29},
;    {2059,  6, 10, 2059,  5, 0, 30},
;    {2059,  7, 10, 2059,  6, 0, 29},
;    {2059,  8,  8, 2059,  7, 0, 30},
;    {2059,  9,  7, 2059,  8, 0, 29},
;    {2059, 10,  6, 2059,  9, 0, 30},
;    {2059, 11,  5, 2059, 10, 0, 30},
;    {2059, 12,  5, 2059, 11, 0, 29},
;    {2060,  1,  3, 2059, 12, 0, 30},
;    {2060,  2,  2, 2060,  1, 0, 29},
;    {2060,  3,  2, 2060,  2, 0, 30},
;    {2060,  4,  1, 2060,  3, 0, 29},
;    {2060,  4, 30, 2060,  4, 0, 30},
;    {2060,  5, 30, 2060,  5, 0, 29},
;    {2060,  6, 28, 2060,  6, 0, 29},
;    {2060,  7, 27, 2060,  7, 0, 30},
;    {2060,  8, 26, 2060,  8, 0, 29},
;    {2060,  9, 24, 2060,  9, 0, 30},
;    {2060, 10, 24, 2060, 10, 0, 30},
;    {2060, 11, 23, 2060, 11, 0, 30},
;    {2060, 12, 23, 2060, 12, 0, 29},
;    {2061,  1, 21, 2061,  1, 0, 30},
;    {2061,  2, 20, 2061,  2, 0, 30},
;    {2061,  3, 22, 2061,  3, 0, 29},
;    {2061,  4, 20, 2061,  3, 1, 29},
;    {2061,  5, 19, 2061,  4, 0, 30},
;    {2061,  6, 18, 2061,  5, 0, 29},
;    {2061,  7, 17, 2061,  6, 0, 29},
;    {2061,  8, 15, 2061,  7, 0, 30},
;    {2061,  9, 14, 2061,  8, 0, 29},
;    {2061, 10, 13, 2061,  9, 0, 30},
;    {2061, 11, 12, 2061, 10, 0, 30},
;    {2061, 12, 12, 2061, 11, 0, 30},
;    {2062,  1, 11, 2061, 12, 0, 29},
;    {2062,  2,  9, 2062,  1, 0, 30},
;    {2062,  3, 11, 2062,  2, 0, 30},
;    {2062,  4, 10, 2062,  3, 0, 29},
;    {2062,  5,  9, 2062,  4, 0, 29},
;    {2062,  6,  7, 2062,  5, 0, 30},
;    {2062,  7,  7, 2062,  6, 0, 29},
;    {2062,  8,  5, 2062,  7, 0, 29},
;    {2062,  9,  3, 2062,  8, 0, 30},
;    {2062, 10,  3, 2062,  9, 0, 29},
;    {2062, 11,  1, 2062, 10, 0, 30},
;    {2062, 12,  1, 2062, 11, 0, 29},
;    {2062, 12, 30, 2062, 12, 0, 30},
;    {2063,  1, 29, 2063,  1, 0, 30},
;    {2063,  2, 28, 2063,  2, 0, 30},
;    {2063,  3, 30, 2063,  3, 0, 29},
;    {2063,  4, 28, 2063,  4, 0, 30},
;    {2063,  5, 28, 2063,  5, 0, 29},
;    {2063,  6, 26, 2063,  6, 0, 30},
;    {2063,  7, 26, 2063,  7, 0, 29},
;    {2063,  8, 24, 2063,  7, 1, 29},
;    {2063,  9, 22, 2063,  8, 0, 30},
;    {2063, 10, 22, 2063,  9, 0, 29},
;    {2063, 11, 20, 2063, 10, 0, 30},
;    {2063, 12, 20, 2063, 11, 0, 29},
;    {2064,  1, 18, 2063, 12, 0, 30},
;    {2064,  2, 17, 2064,  1, 0, 30},
;    {2064,  3, 18, 2064,  2, 0, 30},
;    {2064,  4, 17, 2064,  3, 0, 29},
;    {2064,  5, 16, 2064,  4, 0, 30},
;    {2064,  6, 15, 2064,  5, 0, 29},
;    {2064,  7, 14, 2064,  6, 0, 30},
;    {2064,  8, 13, 2064,  7, 0, 29},
;    {2064,  9, 11, 2064,  8, 0, 29},
;    {2064, 10, 10, 2064,  9, 0, 30},
;    {2064, 11,  9, 2064, 10, 0, 29},
;    {2064, 12,  8, 2064, 11, 0, 30},
;    {2065,  1,  7, 2064, 12, 0, 29},
;    {2065,  2,  5, 2065,  1, 0, 30},
;    {2065,  3,  7, 2065,  2, 0, 30},
;    {2065,  4,  6, 2065,  3, 0, 29},
;    {2065,  5,  5, 2065,  4, 0, 30},
;    {2065,  6,  4, 2065,  5, 0, 30},
;    {2065,  7,  4, 2065,  6, 0, 29},
;    {2065,  8,  2, 2065,  7, 0, 29},
;    {2065,  8, 31, 2065,  8, 0, 30},
;    {2065,  9, 30, 2065,  9, 0, 29},
;    {2065, 10, 29, 2065, 10, 0, 30},
;    {2065, 11, 28, 2065, 11, 0, 29},
;    {2065, 12, 27, 2065, 12, 0, 30},
;    {2066,  1, 26, 2066,  1, 0, 29},
;    {2066,  2, 24, 2066,  2, 0, 30},
;    {2066,  3, 26, 2066,  3, 0, 29},
;    {2066,  4, 24, 2066,  4, 0, 30},
;    {2066,  5, 24, 2066,  5, 0, 30},
;    {2066,  6, 23, 2066,  5, 1, 29},
;    {2066,  7, 22, 2066,  6, 0, 30},
;    {2066,  8, 21, 2066,  7, 0, 29},
;    {2066,  9, 19, 2066,  8, 0, 30},
;    {2066, 10, 19, 2066,  9, 0, 29},
;    {2066, 11, 17, 2066, 10, 0, 30},
;    {2066, 12, 17, 2066, 11, 0, 29},
;    {2067,  1, 15, 2066, 12, 0, 30},
;    {2067,  2, 14, 2067,  1, 0, 29},
;    {2067,  3, 15, 2067,  2, 0, 30},
;    {2067,  4, 14, 2067,  3, 0, 29},
;    {2067,  5, 13, 2067,  4, 0, 30},
;    {2067,  6, 12, 2067,  5, 0, 29},
;    {2067,  7, 11, 2067,  6, 0, 30},
;    {2067,  8, 10, 2067,  7, 0, 30},
;    {2067,  9,  9, 2067,  8, 0, 29},
;    {2067, 10,  8, 2067,  9, 0, 30},
;    {2067, 11,  7, 2067, 10, 0, 29},
;    {2067, 12,  6, 2067, 11, 0, 30},
;    {2068,  1,  5, 2067, 12, 0, 29},
;    {2068,  2,  3, 2068,  1, 0, 30},
;    {2068,  3,  4, 2068,  2, 0, 29},
;    {2068,  4,  2, 2068,  3, 0, 30},
;    {2068,  5,  2, 2068,  4, 0, 29},
;    {2068,  5, 31, 2068,  5, 0, 29},
;    {2068,  6, 29, 2068,  6, 0, 30},
;    {2068,  7, 29, 2068,  7, 0, 30},
;    {2068,  8, 28, 2068,  8, 0, 29},
;    {2068,  9, 26, 2068,  9, 0, 30},
;    {2068, 10, 26, 2068, 10, 0, 30},
;    {2068, 11, 25, 2068, 11, 0, 29},
;    {2068, 12, 24, 2068, 12, 0, 30},
;    {2069,  1, 23, 2069,  1, 0, 29},
;    {2069,  2, 21, 2069,  2, 0, 30},
;    {2069,  3, 23, 2069,  3, 0, 29},
;    {2069,  4, 21, 2069,  4, 0, 30},
;    {2069,  5, 21, 2069,  4, 1, 29},
;    {2069,  6, 19, 2069,  5, 0, 29},
;    {2069,  7, 18, 2069,  6, 0, 30},
;    {2069,  8, 17, 2069,  7, 0, 29},
;    {2069,  9, 15, 2069,  8, 0, 30},
;    {2069, 10, 15, 2069,  9, 0, 30},
;    {2069, 11, 14, 2069, 10, 0, 30},
;    {2069, 12, 14, 2069, 11, 0, 29},
;    {2070,  1, 12, 2069, 12, 0, 30},
;    {2070,  2, 11, 2070,  1, 0, 29},
;    {2070,  3, 12, 2070,  2, 0, 30},
;    {2070,  4, 11, 2070,  3, 0, 29},
;    {2070,  5, 10, 2070,  4, 0, 30},
;    {2070,  6,  9, 2070,  5, 0, 29},
;    {2070,  7,  8, 2070,  6, 0, 29},
;    {2070,  8,  6, 2070,  7, 0, 30},
;    {2070,  9,  5, 2070,  8, 0, 29},
;    {2070, 10,  4, 2070,  9, 0, 30},
;    {2070, 11,  3, 2070, 10, 0, 29},
;    {2070, 12,  2, 2070, 11, 0, 30},
;    {2071,  1,  1, 2070, 12, 0, 30},
;    {2071,  1, 31, 2071,  1, 0, 30},
;    {2071,  3,  2, 2071,  2, 0, 29},
;    {2071,  3, 31, 2071,  3, 0, 30},
;    {2071,  4, 30, 2071,  4, 0, 29},
;    {2071,  5, 29, 2071,  5, 0, 30},
;    {2071,  6, 28, 2071,  6, 0, 29},
;    {2071,  7, 27, 2071,  7, 0, 29},
;    {2071,  8, 25, 2071,  8, 0, 30},
;    {2071,  9, 24, 2071,  8, 1, 29},
;    {2071, 10, 23, 2071,  9, 0, 30},
;    {2071, 11, 22, 2071, 10, 0, 29},
;    {2071, 12, 21, 2071, 11, 0, 30},
;    {2072,  1, 20, 2071, 12, 0, 30},
;    {2072,  2, 19, 2072,  1, 0, 30},
;    {2072,  3, 20, 2072,  2, 0, 29},
;    {2072,  4, 18, 2072,  3, 0, 30},
;    {2072,  5, 18, 2072,  4, 0, 29},
;    {2072,  6, 16, 2072,  5, 0, 30},
;    {2072,  7, 16, 2072,  6, 0, 29},
;    {2072,  8, 14, 2072,  7, 0, 29},
;    {2072,  9, 12, 2072,  8, 0, 30},
;    {2072, 10, 12, 2072,  9, 0, 29},
;    {2072, 11, 10, 2072, 10, 0, 30},
;    {2072, 12, 10, 2072, 11, 0, 29},
;    {2073,  1,  8, 2072, 12, 0, 30},
;    {2073,  2,  7, 2073,  1, 0, 30},
;    {2073,  3,  9, 2073,  2, 0, 29},
;    {2073,  4,  7, 2073,  3, 0, 30},
;    {2073,  5,  7, 2073,  4, 0, 30},
;    {2073,  6,  6, 2073,  5, 0, 29},
;    {2073,  7,  5, 2073,  6, 0, 30},
;    {2073,  8,  4, 2073,  7, 0, 29},
;    {2073,  9,  2, 2073,  8, 0, 29},
;    {2073, 10,  1, 2073,  9, 0, 30},
;    {2073, 10, 31, 2073, 10, 0, 29},
;    {2073, 11, 29, 2073, 11, 0, 29},
;    {2073, 12, 28, 2073, 12, 0, 30},
;    {2074,  1, 27, 2074,  1, 0, 30},
;    {2074,  2, 26, 2074,  2, 0, 29},
;    {2074,  3, 27, 2074,  3, 0, 30},
;    {2074,  4, 26, 2074,  4, 0, 30},
;    {2074,  5, 26, 2074,  5, 0, 29},
;    {2074,  6, 24, 2074,  6, 0, 30},
;    {2074,  7, 24, 2074,  6, 1, 29},
;    {2074,  8, 22, 2074,  7, 0, 30},
;    {2074,  9, 21, 2074,  8, 0, 29},
;    {2074, 10, 20, 2074,  9, 0, 30},
;    {2074, 11, 19, 2074, 10, 0, 29},
;    {2074, 12, 18, 2074, 11, 0, 30},
;    {2075,  1, 17, 2074, 12, 0, 29},
;    {2075,  2, 15, 2075,  1, 0, 30},
;    {2075,  3, 17, 2075,  2, 0, 29},
;    {2075,  4, 15, 2075,  3, 0, 30},
;    {2075,  5, 15, 2075,  4, 0, 29},
;    {2075,  6, 13, 2075,  5, 0, 30},
;    {2075,  7, 13, 2075,  6, 0, 30},
;    {2075,  8, 12, 2075,  7, 0, 29},
;    {2075,  9, 10, 2075,  8, 0, 30},
;    {2075, 10, 10, 2075,  9, 0, 29},
;    {2075, 11,  8, 2075, 10, 0, 30},
;    {2075, 12,  8, 2075, 11, 0, 29},
;    {2076,  1,  6, 2075, 12, 0, 30},
;    {2076,  2,  5, 2076,  1, 0, 29},
;    {2076,  3,  5, 2076,  2, 0, 30},
;    {2076,  4,  4, 2076,  3, 0, 29},
;    {2076,  5,  3, 2076,  4, 0, 30},
;    {2076,  6,  2, 2076,  5, 0, 29},
;    {2076,  7,  1, 2076,  6, 0, 30},
;    {2076,  7, 31, 2076,  7, 0, 29},
;    {2076,  8, 29, 2076,  8, 0, 30},
;    {2076,  9, 28, 2076,  9, 0, 30},
;    {2076, 10, 28, 2076, 10, 0, 29},
;    {2076, 11, 26, 2076, 11, 0, 30},
;    {2076, 12, 26, 2076, 12, 0, 29},
;    {2077,  1, 24, 2077,  1, 0, 30},
;    {2077,  2, 23, 2077,  2, 0, 29},
;    {2077,  3, 24, 2077,  3, 0, 30},
;    {2077,  4, 23, 2077,  4, 0, 29},
;    {2077,  5, 22, 2077,  4, 1, 29},
;    {2077,  6, 20, 2077,  5, 0, 30},
;    {2077,  7, 20, 2077,  6, 0, 29},
;    {2077,  8, 18, 2077,  7, 0, 30},
;    {2077,  9, 17, 2077,  8, 0, 30},
;    {2077, 10, 17, 2077,  9, 0, 30},
;    {2077, 11, 16, 2077, 10, 0, 29},
;    {2077, 12, 15, 2077, 11, 0, 30},
;    {2078,  1, 14, 2077, 12, 0, 29},
;    {2078,  2, 12, 2078,  1, 0, 30},
;    {2078,  3, 14, 2078,  2, 0, 29},
;    {2078,  4, 12, 2078,  3, 0, 30},
;    {2078,  5, 12, 2078,  4, 0, 29},
;    {2078,  6, 10, 2078,  5, 0, 29},
;    {2078,  7,  9, 2078,  6, 0, 30},
;    {2078,  8,  8, 2078,  7, 0, 29},
;    {2078,  9,  6, 2078,  8, 0, 30},
;    {2078, 10,  6, 2078,  9, 0, 29},
;    {2078, 11,  4, 2078, 10, 0, 30},
;    {2078, 12,  4, 2078, 11, 0, 30},
;    {2079,  1,  3, 2078, 12, 0, 30},
;    {2079,  2,  2, 2079,  1, 0, 29},
;    {2079,  3,  3, 2079,  2, 0, 30},
;    {2079,  4,  2, 2079,  3, 0, 29},
;    {2079,  5,  1, 2079,  4, 0, 30},
;    {2079,  5, 31, 2079,  5, 0, 29},
;    {2079,  6, 29, 2079,  6, 0, 29},
;    {2079,  7, 28, 2079,  7, 0, 30},
;    {2079,  8, 27, 2079,  8, 0, 29},
;    {2079,  9, 25, 2079,  9, 0, 30},
;    {2079, 10, 25, 2079, 10, 0, 29},
;    {2079, 11, 23, 2079, 11, 0, 30},
;    {2079, 12, 23, 2079, 12, 0, 30},
;    {2080,  1, 22, 2080,  1, 0, 30},
;    {2080,  2, 21, 2080,  2, 0, 29},
;    {2080,  3, 21, 2080,  3, 0, 30},
;    {2080,  4, 20, 2080,  3, 1, 29},
;    {2080,  5, 19, 2080,  4, 0, 30},
;    {2080,  6, 18, 2080,  5, 0, 29},
;    {2080,  7, 17, 2080,  6, 0, 29},
;    {2080,  8, 15, 2080,  7, 0, 29},
;    {2080,  9, 13, 2080,  8, 0, 30},
;    {2080, 10, 13, 2080,  9, 0, 29},
;    {2080, 11, 11, 2080, 10, 0, 30},
;    {2080, 12, 11, 2080, 11, 0, 30},
;    {2081,  1, 10, 2080, 12, 0, 30},
;    {2081,  2,  9, 2081,  1, 0, 29},
;    {2081,  3, 10, 2081,  2, 0, 30},
;    {2081,  4,  9, 2081,  3, 0, 30},
;    {2081,  5,  9, 2081,  4, 0, 29},
;    {2081,  6,  7, 2081,  5, 0, 30},
;    {2081,  7,  7, 2081,  6, 0, 29},
;    {2081,  8,  5, 2081,  7, 0, 29},
;    {2081,  9,  3, 2081,  8, 0, 30},
;    {2081, 10,  3, 2081,  9, 0, 29},
;    {2081, 11,  1, 2081, 10, 0, 29},
;    {2081, 11, 30, 2081, 11, 0, 30},
;    {2081, 12, 30, 2081, 12, 0, 30},
;    {2082,  1, 29, 2082,  1, 0, 29},
;    {2082,  2, 27, 2082,  2, 0, 30},
;    {2082,  3, 29, 2082,  3, 0, 30},
;    {2082,  4, 28, 2082,  4, 0, 29},
;    {2082,  5, 27, 2082,  5, 0, 30},
;    {2082,  6, 26, 2082,  6, 0, 29},
;    {2082,  7, 25, 2082,  7, 0, 30},
;    {2082,  8, 24, 2082,  7, 1, 29},
;    {2082,  9, 22, 2082,  8, 0, 30},
;    {2082, 10, 22, 2082,  9, 0, 29},
;    {2082, 11, 20, 2082, 10, 0, 29},
;    {2082, 12, 19, 2082, 11, 0, 30},
;    {2083,  1, 18, 2082, 12, 0, 30},
;    {2083,  2, 17, 2083,  1, 0, 29},
;    {2083,  3, 18, 2083,  2, 0, 30},
;    {2083,  4, 17, 2083,  3, 0, 30},
;    {2083,  5, 17, 2083,  4, 0, 29},
;    {2083,  6, 15, 2083,  5, 0, 30},
;    {2083,  7, 15, 2083,  6, 0, 29},
;    {2083,  8, 13, 2083,  7, 0, 30},
;    {2083,  9, 12, 2083,  8, 0, 29},
;    {2083, 10, 11, 2083,  9, 0, 30},
;    {2083, 11, 10, 2083, 10, 0, 29},
;    {2083, 12,  9, 2083, 11, 0, 30},
;    {2084,  1,  8, 2083, 12, 0, 29},
;    {2084,  2,  6, 2084,  1, 0, 30},
;    {2084,  3,  7, 2084,  2, 0, 29},
;    {2084,  4,  5, 2084,  3, 0, 30},
;    {2084,  5,  5, 2084,  4, 0, 29},
;    {2084,  6,  3, 2084,  5, 0, 30},
;    {2084,  7,  3, 2084,  6, 0, 30},
;    {2084,  8,  2, 2084,  7, 0, 29},
;    {2084,  8, 31, 2084,  8, 0, 30},
;    {2084,  9, 30, 2084,  9, 0, 29},
;    {2084, 10, 29, 2084, 10, 0, 30},
;    {2084, 11, 28, 2084, 11, 0, 29},
;    {2084, 12, 27, 2084, 12, 0, 30},
;    {2085,  1, 26, 2085,  1, 0, 29},
;    {2085,  2, 24, 2085,  2, 0, 29},
;    {2085,  3, 25, 2085,  3, 0, 30},
;    {2085,  4, 24, 2085,  4, 0, 29},
;    {2085,  5, 23, 2085,  5, 0, 30},
;    {2085,  6, 22, 2085,  5, 1, 30},
;    {2085,  7, 22, 2085,  6, 0, 29},
;    {2085,  8, 20, 2085,  7, 0, 30},
;    {2085,  9, 19, 2085,  8, 0, 29},
;    {2085, 10, 18, 2085,  9, 0, 30},
;    {2085, 11, 17, 2085, 10, 0, 30},
;    {2085, 12, 17, 2085, 11, 0, 29},
;    {2086,  1, 15, 2085, 12, 0, 30},
;    {2086,  2, 14, 2086,  1, 0, 29},
;    {2086,  3, 15, 2086,  2, 0, 29},
;    {2086,  4, 13, 2086,  3, 0, 30},
;    {2086,  5, 13, 2086,  4, 0, 29},
;    {2086,  6, 11, 2086,  5, 0, 30},
;    {2086,  7, 11, 2086,  6, 0, 29},
;    {2086,  8,  9, 2086,  7, 0, 30},
;    {2086,  9,  8, 2086,  8, 0, 30},
;    {2086, 10,  8, 2086,  9, 0, 29},
;    {2086, 11,  6, 2086, 10, 0, 30},
;    {2086, 12,  6, 2086, 11, 0, 30},
;    {2087,  1,  5, 2086, 12, 0, 29},
;    {2087,  2,  3, 2087,  1, 0, 30},
;    {2087,  3,  5, 2087,  2, 0, 29},
;    {2087,  4,  3, 2087,  3, 0, 30},
;    {2087,  5,  3, 2087,  4, 0, 29},
;    {2087,  6,  1, 2087,  5, 0, 29},
;    {2087,  6, 30, 2087,  6, 0, 30},
;    {2087,  7, 30, 2087,  7, 0, 29},
;    {2087,  8, 28, 2087,  8, 0, 30},
;    {2087,  9, 27, 2087,  9, 0, 29},
;    {2087, 10, 26, 2087, 10, 0, 30},
;    {2087, 11, 25, 2087, 11, 0, 30},
;    {2087, 12, 25, 2087, 12, 0, 30},
;    {2088,  1, 24, 2088,  1, 0, 29},
;    {2088,  2, 22, 2088,  2, 0, 30},
;    {2088,  3, 23, 2088,  3, 0, 29},
;    {2088,  4, 21, 2088,  4, 0, 30},
;    {2088,  5, 21, 2088,  4, 1, 29},
;    {2088,  6, 19, 2088,  5, 0, 29},
;    {2088,  7, 18, 2088,  6, 0, 29},
;    {2088,  8, 16, 2088,  7, 0, 30},
;    {2088,  9, 15, 2088,  8, 0, 29},
;    {2088, 10, 14, 2088,  9, 0, 30},
;    {2088, 11, 13, 2088, 10, 0, 30},
;    {2088, 12, 13, 2088, 11, 0, 30},
;    {2089,  1, 12, 2088, 12, 0, 29},
;    {2089,  2, 10, 2089,  1, 0, 30},
;    {2089,  3, 12, 2089,  2, 0, 30},
;    {2089,  4, 11, 2089,  3, 0, 29},
;    {2089,  5, 10, 2089,  4, 0, 30},
;    {2089,  6,  9, 2089,  5, 0, 29},
;    {2089,  7,  8, 2089,  6, 0, 29},
;    {2089,  8,  6, 2089,  7, 0, 29},
;    {2089,  9,  4, 2089,  8, 0, 30},
;    {2089, 10,  4, 2089,  9, 0, 29},
;    {2089, 11,  2, 2089, 10, 0, 30},
;    {2089, 12,  2, 2089, 11, 0, 30},
;    {2090,  1,  1, 2089, 12, 0, 29},
;    {2090,  1, 30, 2090,  1, 0, 30},
;    {2090,  3,  1, 2090,  2, 0, 30},
;    {2090,  3, 31, 2090,  3, 0, 30},
;    {2090,  4, 30, 2090,  4, 0, 29},
;    {2090,  5, 29, 2090,  5, 0, 30},
;    {2090,  6, 28, 2090,  6, 0, 29},
;    {2090,  7, 27, 2090,  7, 0, 29},
;    {2090,  8, 25, 2090,  8, 0, 30},
;    {2090,  9, 24, 2090,  8, 1, 29},
;    {2090, 10, 23, 2090,  9, 0, 29},
;    {2090, 11, 21, 2090, 10, 0, 30},
;    {2090, 12, 21, 2090, 11, 0, 29},
;    {2091,  1, 19, 2090, 12, 0, 30},
;    {2091,  2, 18, 2091,  1, 0, 30},
;    {2091,  3, 20, 2091,  2, 0, 30},
;    {2091,  4, 19, 2091,  3, 0, 29},
;    {2091,  5, 18, 2091,  4, 0, 30},
;    {2091,  6, 17, 2091,  5, 0, 29},
;    {2091,  7, 16, 2091,  6, 0, 30},
;    {2091,  8, 15, 2091,  7, 0, 29},
;    {2091,  9, 13, 2091,  8, 0, 30},
;    {2091, 10, 13, 2091,  9, 0, 29},
;    {2091, 11, 11, 2091, 10, 0, 29},
;    {2091, 12, 10, 2091, 11, 0, 30},
;    {2092,  1,  9, 2091, 12, 0, 29},
;    {2092,  2,  7, 2092,  1, 0, 30},
;    {2092,  3,  8, 2092,  2, 0, 30},
;    {2092,  4,  7, 2092,  3, 0, 29},
;    {2092,  5,  6, 2092,  4, 0, 30},
;    {2092,  6,  5, 2092,  5, 0, 30},
;    {2092,  7,  5, 2092,  6, 0, 29},
;    {2092,  8,  3, 2092,  7, 0, 30},
;    {2092,  9,  2, 2092,  8, 0, 29},
;    {2092, 10,  1, 2092,  9, 0, 30},
;    {2092, 10, 31, 2092, 10, 0, 29},
;    {2092, 11, 29, 2092, 11, 0, 29},
;    {2092, 12, 28, 2092, 12, 0, 30},
;    {2093,  1, 27, 2093,  1, 0, 29},
;    {2093,  2, 25, 2093,  2, 0, 30},
;    {2093,  3, 27, 2093,  3, 0, 29},
;    {2093,  4, 25, 2093,  4, 0, 30},
;    {2093,  5, 25, 2093,  5, 0, 30},
;    {2093,  6, 24, 2093,  6, 0, 29},
;    {2093,  7, 23, 2093,  6, 1, 30},
;    {2093,  8, 22, 2093,  7, 0, 30},
;    {2093,  9, 21, 2093,  8, 0, 29},
;    {2093, 10, 20, 2093,  9, 0, 30},
;    {2093, 11, 19, 2093, 10, 0, 29},
;    {2093, 12, 18, 2093, 11, 0, 30},
;    {2094,  1, 17, 2093, 12, 0, 29},
;    {2094,  2, 15, 2094,  1, 0, 29},
;    {2094,  3, 16, 2094,  2, 0, 30},
;    {2094,  4, 15, 2094,  3, 0, 29},
;    {2094,  5, 14, 2094,  4, 0, 30},
;    {2094,  6, 13, 2094,  5, 0, 29},
;    {2094,  7, 12, 2094,  6, 0, 30},
;    {2094,  8, 11, 2094,  7, 0, 30},
;    {2094,  9, 10, 2094,  8, 0, 29},
;    {2094, 10,  9, 2094,  9, 0, 30},
;    {2094, 11,  8, 2094, 10, 0, 30},
;    {2094, 12,  8, 2094, 11, 0, 29},
;    {2095,  1,  6, 2094, 12, 0, 30},
;    {2095,  2,  5, 2095,  1, 0, 29},
;    {2095,  3,  6, 2095,  2, 0, 29},
;    {2095,  4,  4, 2095,  3, 0, 30},
;    {2095,  5,  4, 2095,  4, 0, 29},
;    {2095,  6,  2, 2095,  5, 0, 30},
;    {2095,  7,  2, 2095,  6, 0, 29},
;    {2095,  7, 31, 2095,  7, 0, 30},
;    {2095,  8, 30, 2095,  8, 0, 29},
;    {2095,  9, 28, 2095,  9, 0, 30},
;    {2095, 10, 28, 2095, 10, 0, 30},
;    {2095, 11, 27, 2095, 11, 0, 30},
;    {2095, 12, 27, 2095, 12, 0, 29},
;    {2096,  1, 25, 2096,  1, 0, 30},
;    {2096,  2, 24, 2096,  2, 0, 29},
;    {2096,  3, 24, 2096,  3, 0, 30},
;    {2096,  4, 23, 2096,  4, 0, 29},
;    {2096,  5, 22, 2096,  4, 1, 29},
;    {2096,  6, 20, 2096,  5, 0, 30},
;    {2096,  7, 20, 2096,  6, 0, 29},
;    {2096,  8, 18, 2096,  7, 0, 29},
;    {2096,  9, 16, 2096,  8, 0, 30},
;    {2096, 10, 16, 2096,  9, 0, 30},
;    {2096, 11, 15, 2096, 10, 0, 30},
;    {2096, 12, 15, 2096, 11, 0, 29},
;    {2097,  1, 13, 2096, 12, 0, 30},
;    {2097,  2, 12, 2097,  1, 0, 30},
;    {2097,  3, 14, 2097,  2, 0, 29},
;    {2097,  4, 12, 2097,  3, 0, 30},
;    {2097,  5, 12, 2097,  4, 0, 29},
;    {2097,  6, 10, 2097,  5, 0, 29},
;    {2097,  7,  9, 2097,  6, 0, 29},
;    {2097,  8,  7, 2097,  7, 0, 30},
;    {2097,  9,  6, 2097,  8, 0, 29},
;    {2097, 10,  5, 2097,  9, 0, 30},
;    {2097, 11,  4, 2097, 10, 0, 30},
;    {2097, 12,  4, 2097, 11, 0, 29},
;    {2098,  1,  2, 2097, 12, 0, 30},
;    {2098,  2,  1, 2098,  1, 0, 30},
;    {2098,  3,  3, 2098,  2, 0, 30},
;    {2098,  4,  2, 2098,  3, 0, 29},
;    {2098,  5,  1, 2098,  4, 0, 30},
;    {2098,  5, 31, 2098,  5, 0, 29},
;    {2098,  6, 29, 2098,  6, 0, 29},
;    {2098,  7, 28, 2098,  7, 0, 29},
;    {2098,  8, 26, 2098,  8, 0, 30},
;    {2098,  9, 25, 2098,  9, 0, 29},
;    {2098, 10, 24, 2098, 10, 0, 30},
;    {2098, 11, 23, 2098, 11, 0, 29},
;    {2098, 12, 22, 2098, 12, 0, 30},
;    {2099,  1, 21, 2099,  1, 0, 30},
;    {2099,  2, 20, 2099,  2, 0, 30},
;    {2099,  3, 22, 2099,  2, 1, 29},
;    {2099,  4, 20, 2099,  3, 0, 30},
;    {2099,  5, 20, 2099,  4, 0, 29},
;    {2099,  6, 18, 2099,  5, 0, 30},
;    {2099,  7, 18, 2099,  6, 0, 29},
;    {2099,  8, 16, 2099,  7, 0, 29},
;    {2099,  9, 14, 2099,  8, 0, 30},
;    {2099, 10, 14, 2099,  9, 0, 29},
;    {2099, 11, 12, 2099, 10, 0, 30},
;    {2099, 12, 12, 2099, 11, 0, 29}
;};
;
;#define LUNAR_TABLE_SIZE (sizeof(lunar_table) / sizeof(lunar_table[0]))
;
;volatile unsigned int tick_1s = 0;
;volatile unsigned char bt1_event = 0;
;volatile unsigned char bt2_short_event = 0;
;volatile unsigned char bt2_hold_event = 0;
;volatile unsigned char bt3_event = 0;
;volatile unsigned char keypad_event = 0;
;volatile unsigned char keypad_event_value = 0;
;
;unsigned char hour = 14;
;unsigned char minute = 25;
;unsigned char second = 0;
;unsigned char day = 26;
;unsigned char month = 5;
;unsigned int year = 2026;
;
;unsigned char display_mode = DISPLAY_SOLAR;
;unsigned char edit_mode = 0;
;unsigned char edit_field = EDIT_HOUR;
;unsigned char edit_digits[4];
;unsigned char edit_digit_count = 0;
;unsigned char need_redraw = 1;

	.DSEG
;unsigned char full_redraw = 1;
;
;unsigned char keypad_value[3][3] = {
;    {1, 2, 3},
;    {4, 5, 6},
;    {7, 8, 9}
;};
;
;void timer0_poll_keys(void);
;
;interrupt [TIM1_COMPA] void timer1_compa_isr(void)
; 0000 0546 {

	.CSEG
_timer1_compa_isr:
; .FSTART _timer1_compa_isr
	ST   -Y,R26
	ST   -Y,R27
	ST   -Y,R30
	ST   -Y,R31
	IN   R30,SREG
	ST   -Y,R30
; 0000 0547     tick_1s++;
	LDI  R26,LOW(_tick_1s)
	LDI  R27,HIGH(_tick_1s)
	CALL SUBOPT_0x0
; 0000 0548 }
	LD   R30,Y+
	OUT  SREG,R30
	LD   R31,Y+
	LD   R30,Y+
	LD   R27,Y+
	LD   R26,Y+
	RETI
; .FEND
;
;interrupt [TIM0_COMP] void timer0_comp_isr(void)
; 0000 054B {
_timer0_comp_isr:
; .FSTART _timer0_comp_isr
	ST   -Y,R0
	ST   -Y,R1
	ST   -Y,R15
	ST   -Y,R22
	ST   -Y,R23
	ST   -Y,R24
	ST   -Y,R25
	ST   -Y,R26
	ST   -Y,R27
	ST   -Y,R30
	ST   -Y,R31
	IN   R30,SREG
	ST   -Y,R30
; 0000 054C     timer0_poll_keys();
	RCALL _timer0_poll_keys
; 0000 054D }
	LD   R30,Y+
	OUT  SREG,R30
	LD   R31,Y+
	LD   R30,Y+
	LD   R27,Y+
	LD   R26,Y+
	LD   R25,Y+
	LD   R24,Y+
	LD   R23,Y+
	LD   R22,Y+
	LD   R15,Y+
	LD   R1,Y+
	LD   R0,Y+
	RETI
; .FEND
;
;unsigned char is_leap_year(unsigned int y)
; 0000 0550 {
_is_leap_year:
; .FSTART _is_leap_year
; 0000 0551     if ((y % 400) == 0) return 1;
	CALL SUBOPT_0x1
;	y -> Y+0
	LDI  R30,LOW(400)
	LDI  R31,HIGH(400)
	CALL __MODW21U
	SBIW R30,0
	BRNE _0x6
	LDI  R30,LOW(1)
	JMP  _0x212000C
; 0000 0552     if ((y % 100) == 0) return 0;
_0x6:
	LD   R26,Y
	LDD  R27,Y+1
	LDI  R30,LOW(100)
	LDI  R31,HIGH(100)
	CALL __MODW21U
	SBIW R30,0
	BRNE _0x7
	LDI  R30,LOW(0)
	JMP  _0x212000C
; 0000 0553     return ((y % 4) == 0);
_0x7:
	LD   R30,Y
	LDD  R31,Y+1
	ANDI R30,LOW(0x3)
	ANDI R31,HIGH(0x3)
	LDI  R26,LOW(0)
	LDI  R27,HIGH(0)
	CALL __EQW12
	JMP  _0x212000C
; 0000 0554 }
; .FEND
;
;unsigned char days_in_month(unsigned char m, unsigned int y)
; 0000 0557 {
_days_in_month:
; .FSTART _days_in_month
; 0000 0558     switch (m) {
	ST   -Y,R27
	ST   -Y,R26
;	m -> Y+2
;	y -> Y+0
	LDD  R30,Y+2
	LDI  R31,0
; 0000 0559     case 1:
	CPI  R30,LOW(0x1)
	LDI  R26,HIGH(0x1)
	CPC  R31,R26
	BREQ _0xC
; 0000 055A     case 3:
	CPI  R30,LOW(0x3)
	LDI  R26,HIGH(0x3)
	CPC  R31,R26
	BRNE _0xD
_0xC:
; 0000 055B     case 5:
	RJMP _0xE
_0xD:
	CPI  R30,LOW(0x5)
	LDI  R26,HIGH(0x5)
	CPC  R31,R26
	BRNE _0xF
_0xE:
; 0000 055C     case 7:
	RJMP _0x10
_0xF:
	CPI  R30,LOW(0x7)
	LDI  R26,HIGH(0x7)
	CPC  R31,R26
	BRNE _0x11
_0x10:
; 0000 055D     case 8:
	RJMP _0x12
_0x11:
	CPI  R30,LOW(0x8)
	LDI  R26,HIGH(0x8)
	CPC  R31,R26
	BRNE _0x13
_0x12:
; 0000 055E     case 10:
	RJMP _0x14
_0x13:
	CPI  R30,LOW(0xA)
	LDI  R26,HIGH(0xA)
	CPC  R31,R26
	BRNE _0x15
_0x14:
; 0000 055F     case 12:
	RJMP _0x16
_0x15:
	CPI  R30,LOW(0xC)
	LDI  R26,HIGH(0xC)
	CPC  R31,R26
	BRNE _0x17
_0x16:
; 0000 0560         return 31;
	LDI  R30,LOW(31)
	JMP  _0x212000D
; 0000 0561     case 4:
_0x17:
	CPI  R30,LOW(0x4)
	LDI  R26,HIGH(0x4)
	CPC  R31,R26
	BREQ _0x19
; 0000 0562     case 6:
	CPI  R30,LOW(0x6)
	LDI  R26,HIGH(0x6)
	CPC  R31,R26
	BRNE _0x1A
_0x19:
; 0000 0563     case 9:
	RJMP _0x1B
_0x1A:
	CPI  R30,LOW(0x9)
	LDI  R26,HIGH(0x9)
	CPC  R31,R26
	BRNE _0x1C
_0x1B:
; 0000 0564     case 11:
	RJMP _0x1D
_0x1C:
	CPI  R30,LOW(0xB)
	LDI  R26,HIGH(0xB)
	CPC  R31,R26
	BRNE _0x1E
_0x1D:
; 0000 0565         return 30;
	LDI  R30,LOW(30)
	JMP  _0x212000D
; 0000 0566     case 2:
_0x1E:
	CPI  R30,LOW(0x2)
	LDI  R26,HIGH(0x2)
	CPC  R31,R26
	BRNE _0x23
; 0000 0567         return is_leap_year(y) ? 29 : 28;
	LD   R26,Y
	LDD  R27,Y+1
	RCALL _is_leap_year
	CPI  R30,0
	BREQ _0x20
	LDI  R30,LOW(29)
	RJMP _0x21
_0x20:
	LDI  R30,LOW(28)
_0x21:
	JMP  _0x212000D
; 0000 0568     default:
_0x23:
; 0000 0569         return 31;
	LDI  R30,LOW(31)
	JMP  _0x212000D
; 0000 056A     }
; 0000 056B }
; .FEND
;
;unsigned char valid_date(unsigned char d, unsigned char m, unsigned int y)
; 0000 056E {
_valid_date:
; .FSTART _valid_date
; 0000 056F     if (y < 2000 || y > 2099) return 0;
	CALL SUBOPT_0x1
;	d -> Y+3
;	m -> Y+2
;	y -> Y+0
	CPI  R26,LOW(0x7D0)
	LDI  R30,HIGH(0x7D0)
	CPC  R27,R30
	BRLO _0x25
	LD   R26,Y
	LDD  R27,Y+1
	CPI  R26,LOW(0x834)
	LDI  R30,HIGH(0x834)
	CPC  R27,R30
	BRLO _0x24
_0x25:
	LDI  R30,LOW(0)
	RJMP _0x2120012
; 0000 0570     if (m < 1 || m > 12) return 0;
_0x24:
	LDD  R26,Y+2
	CPI  R26,LOW(0x1)
	BRLO _0x28
	CPI  R26,LOW(0xD)
	BRLO _0x27
_0x28:
	LDI  R30,LOW(0)
	RJMP _0x2120012
; 0000 0571     if (d < 1 || d > days_in_month(m, y)) return 0;
_0x27:
	LDD  R26,Y+3
	CPI  R26,LOW(0x1)
	BRLO _0x2B
	LDD  R30,Y+2
	ST   -Y,R30
	LDD  R26,Y+1
	LDD  R27,Y+1+1
	RCALL _days_in_month
	LDD  R26,Y+3
	CP   R30,R26
	BRSH _0x2A
_0x2B:
	LDI  R30,LOW(0)
	RJMP _0x2120012
; 0000 0572     return 1;
_0x2A:
	LDI  R30,LOW(1)
_0x2120012:
	ADIW R28,4
	RET
; 0000 0573 }
; .FEND
;
;long date_to_days(unsigned int y, unsigned char m, unsigned char d)
; 0000 0576 {
_date_to_days:
; .FSTART _date_to_days
; 0000 0577     long total = 0;
; 0000 0578     unsigned int yy;
; 0000 0579     unsigned char mm;
; 0000 057A 
; 0000 057B     if (y >= 2000) {
	ST   -Y,R26
	SBIW R28,4
	LDI  R30,LOW(0)
	ST   Y,R30
	STD  Y+1,R30
	STD  Y+2,R30
	STD  Y+3,R30
	CALL __SAVELOCR4
;	y -> Y+10
;	m -> Y+9
;	d -> Y+8
;	total -> Y+4
;	yy -> R16,R17
;	mm -> R19
	LDD  R26,Y+10
	LDD  R27,Y+10+1
	CPI  R26,LOW(0x7D0)
	LDI  R30,HIGH(0x7D0)
	CPC  R27,R30
	BRLO _0x2D
; 0000 057C         for (yy = 2000; yy < y; yy++) {
	__GETWRN 16,17,2000
_0x2F:
	LDD  R30,Y+10
	LDD  R31,Y+10+1
	CP   R16,R30
	CPC  R17,R31
	BRSH _0x30
; 0000 057D             total += is_leap_year(yy) ? 366 : 365;
	MOVW R26,R16
	RCALL _is_leap_year
	CPI  R30,0
	BREQ _0x31
	__GETD1N 0x16E
	RJMP _0x32
_0x31:
	__GETD1N 0x16D
_0x32:
	CALL SUBOPT_0x2
	CALL SUBOPT_0x3
; 0000 057E         }
	__ADDWRN 16,17,1
	RJMP _0x2F
_0x30:
; 0000 057F     } else {
	RJMP _0x34
_0x2D:
; 0000 0580         for (yy = y; yy < 2000; yy++) {
	__GETWRS 16,17,10
_0x36:
	__CPWRN 16,17,2000
	BRSH _0x37
; 0000 0581             total -= is_leap_year(yy) ? 366 : 365;
	MOVW R26,R16
	RCALL _is_leap_year
	CPI  R30,0
	BREQ _0x38
	__GETD1N 0x16E
	RJMP _0x39
_0x38:
	__GETD1N 0x16D
_0x39:
	CALL SUBOPT_0x2
	CALL __SUBD21
	__PUTD2S 4
; 0000 0582         }
	__ADDWRN 16,17,1
	RJMP _0x36
_0x37:
; 0000 0583     }
_0x34:
; 0000 0584 
; 0000 0585     for (mm = 1; mm < m; mm++) {
	LDI  R19,LOW(1)
_0x3C:
	LDD  R30,Y+9
	CP   R19,R30
	BRSH _0x3D
; 0000 0586         total += days_in_month(mm, y);
	ST   -Y,R19
	LDD  R26,Y+11
	LDD  R27,Y+11+1
	RCALL _days_in_month
	LDI  R31,0
	CALL SUBOPT_0x4
; 0000 0587     }
	SUBI R19,-1
	RJMP _0x3C
_0x3D:
; 0000 0588 
; 0000 0589     total += d - 1;
	LDD  R30,Y+8
	LDI  R31,0
	SBIW R30,1
	CALL SUBOPT_0x4
; 0000 058A     return total;
	__GETD1S 4
	CALL __LOADLOCR4
	ADIW R28,12
	RET
; 0000 058B }
; .FEND
;
;void increase_one_second(void)
; 0000 058E {
_increase_one_second:
; .FSTART _increase_one_second
; 0000 058F     second++;
	INC  R7
; 0000 0590     if (second < 60) return;
	LDI  R30,LOW(60)
	CP   R7,R30
	BRSH _0x3E
	RET
; 0000 0591     second = 0;
_0x3E:
	CLR  R7
; 0000 0592 
; 0000 0593     minute++;
	INC  R4
; 0000 0594     if (minute < 60) return;
	LDI  R30,LOW(60)
	CP   R4,R30
	BRSH _0x3F
	RET
; 0000 0595     minute = 0;
_0x3F:
	CLR  R4
; 0000 0596 
; 0000 0597     hour++;
	INC  R5
; 0000 0598     if (hour < 24) return;
	LDI  R30,LOW(24)
	CP   R5,R30
	BRSH _0x40
	RET
; 0000 0599     hour = 0;
_0x40:
	CLR  R5
; 0000 059A 
; 0000 059B     day++;
	INC  R6
; 0000 059C     if (day <= days_in_month(month, year)) return;
	ST   -Y,R9
	MOVW R26,R10
	RCALL _days_in_month
	CP   R30,R6
	BRLO _0x41
	RET
; 0000 059D     day = 1;
_0x41:
	LDI  R30,LOW(1)
	MOV  R6,R30
; 0000 059E 
; 0000 059F     month++;
	INC  R9
; 0000 05A0     if (month <= 12) return;
	LDI  R30,LOW(12)
	CP   R30,R9
	BRLO _0x42
	RET
; 0000 05A1     month = 1;
_0x42:
	LDI  R30,LOW(1)
	MOV  R9,R30
; 0000 05A2     year++;
	MOVW R30,R10
	ADIW R30,1
	MOVW R10,R30
; 0000 05A3 }
	RET
; .FEND
;
;LunarDate get_lunar_date(unsigned int sy, unsigned char sm, unsigned char sd)
; 0000 05A6 {
_get_lunar_date:
; .FSTART _get_lunar_date
; 0000 05A7     LunarDate out;
; 0000 05A8     long current;
; 0000 05A9     long start;
; 0000 05AA     unsigned int i;
; 0000 05AB 
; 0000 05AC     out.valid = 0;
	ST   -Y,R26
	SBIW R28,20
	ST   -Y,R17
	ST   -Y,R16
;	sy -> Y+24
;	sm -> Y+23
;	sd -> Y+22
;	out -> Y+10
;	current -> Y+6
;	start -> Y+2
;	i -> R16,R17
	LDI  R30,LOW(0)
	STD  Y+15,R30
; 0000 05AD     out.day = 0;
	STD  Y+10,R30
; 0000 05AE     out.month = 0;
	STD  Y+11,R30
; 0000 05AF     out.year = 0;
	STD  Y+12,R30
	STD  Y+12+1,R30
; 0000 05B0     out.leap = 0;
	STD  Y+14,R30
; 0000 05B1 
; 0000 05B2     current = date_to_days(sy, sm, sd);
	LDD  R30,Y+24
	LDD  R31,Y+24+1
	ST   -Y,R31
	ST   -Y,R30
	LDD  R30,Y+25
	ST   -Y,R30
	LDD  R26,Y+25
	RCALL _date_to_days
	__PUTD1S 6
; 0000 05B3 
; 0000 05B4     for (i = 0; i < LUNAR_TABLE_SIZE; i++) {
	__GETWRN 16,17,0
_0x44:
	__CPWRN 16,17,1238
	BRLO PC+2
	RJMP _0x45
; 0000 05B5         start = date_to_days(lunar_table[i].solar_year,
; 0000 05B6                              lunar_table[i].solar_month,
; 0000 05B7                              lunar_table[i].solar_day);
	CALL SUBOPT_0x5
	MOVW R22,R30
	MOVW R26,R30
	CALL __GETW1PF
	ST   -Y,R31
	ST   -Y,R30
	MOVW R30,R26
	ADIW R30,2
	LPM  R30,Z
	ST   -Y,R30
	MOVW R30,R22
	ADIW R30,3
	LPM  R26,Z
	RCALL _date_to_days
	__PUTD1S 2
; 0000 05B8 
; 0000 05B9         if (current >= start &&
; 0000 05BA             current < (start + lunar_table[i].month_days)) {
	CALL SUBOPT_0x6
	BRLT _0x47
	CALL SUBOPT_0x5
	ADIW R30,8
	LPM  R30,Z
	LDI  R31,0
	__GETD2S 2
	CALL __CWD1
	CALL __ADDD12
	CALL SUBOPT_0x6
	BRLT _0x48
_0x47:
	RJMP _0x46
_0x48:
; 0000 05BB             out.valid = 1;
	LDI  R30,LOW(1)
	STD  Y+15,R30
; 0000 05BC             out.day = (unsigned char)(current - start + 1);
	LDD  R26,Y+2
	LDD  R30,Y+6
	SUB  R30,R26
	SUBI R30,-LOW(1)
	STD  Y+10,R30
; 0000 05BD             out.month = lunar_table[i].lunar_month;
	CALL SUBOPT_0x5
	ADIW R30,6
	LPM  R0,Z
	STD  Y+11,R0
; 0000 05BE             out.year = lunar_table[i].lunar_year;
	CALL SUBOPT_0x5
	ADIW R30,4
	CALL __GETW1PF
	STD  Y+12,R30
	STD  Y+12+1,R31
; 0000 05BF             out.leap = lunar_table[i].leap;
	CALL SUBOPT_0x5
	ADIW R30,7
	LPM  R0,Z
	STD  Y+14,R0
; 0000 05C0             return out;
	RJMP _0x2120011
; 0000 05C1         }
; 0000 05C2     }
_0x46:
	__ADDWRN 16,17,1
	RJMP _0x44
_0x45:
; 0000 05C3 
; 0000 05C4     return out;
_0x2120011:
	MOVW R30,R28
	ADIW R30,10
	MOVW R26,R28
	ADIW R26,16
	LDI  R24,6
	CALL __COPYMML
	MOVW R30,R28
	ADIW R30,16
	LDI  R24,6
	LDD  R17,Y+1
	LDD  R16,Y+0
	ADIW R28,26
	RET
; 0000 05C5 }
; .FEND
;
;void clear_rect_pixels(unsigned char left, unsigned char top,
; 0000 05C8                        unsigned char right, unsigned char bottom)
; 0000 05C9 {
_clear_rect_pixels:
; .FSTART _clear_rect_pixels
; 0000 05CA     unsigned char x;
; 0000 05CB     unsigned char y;
; 0000 05CC 
; 0000 05CD     for (x = left; x <= right; x++) {
	ST   -Y,R26
	ST   -Y,R17
	ST   -Y,R16
;	left -> Y+5
;	top -> Y+4
;	right -> Y+3
;	bottom -> Y+2
;	x -> R17
;	y -> R16
	LDD  R17,Y+5
_0x4A:
	LDD  R30,Y+3
	CP   R30,R17
	BRLO _0x4B
; 0000 05CE         for (y = top; y <= bottom; y++) {
	LDD  R16,Y+4
_0x4D:
	LDD  R30,Y+2
	CP   R30,R16
	BRLO _0x4E
; 0000 05CF             glcd_putpixel(x, y, 0);
	ST   -Y,R17
	ST   -Y,R16
	LDI  R26,LOW(0)
	CALL _glcd_putpixel
; 0000 05D0         }
	SUBI R16,-1
	RJMP _0x4D
_0x4E:
; 0000 05D1     }
	SUBI R17,-1
	RJMP _0x4A
_0x4B:
; 0000 05D2 }
	LDD  R17,Y+1
	LDD  R16,Y+0
	JMP  _0x212000A
; .FEND
;
;void draw_screen(void)
; 0000 05D5 {
_draw_screen:
; .FSTART _draw_screen
; 0000 05D6     char line[22];
; 0000 05D7     char input[7];
; 0000 05D8     LunarDate lunar;
; 0000 05D9 
; 0000 05DA     if (full_redraw) {
	SBIW R28,35
;	line -> Y+13
;	input -> Y+6
;	lunar -> Y+0
	LDS  R30,_full_redraw
	CPI  R30,0
	BREQ _0x4F
; 0000 05DB         glcd_clear();
	CALL _glcd_clear
; 0000 05DC         full_redraw = 0;
	LDI  R30,LOW(0)
	STS  _full_redraw,R30
; 0000 05DD     }
; 0000 05DE 
; 0000 05DF     clear_rect_pixels(0, 0, 83, 7);
_0x4F:
	CALL SUBOPT_0x7
	LDI  R30,LOW(83)
	ST   -Y,R30
	LDI  R26,LOW(7)
	CALL SUBOPT_0x8
; 0000 05E0     glcd_setcolor(1);
; 0000 05E1     if (edit_mode) {
	TST  R13
	BREQ _0x50
; 0000 05E2         glcd_outtextxy(0, 0, "CHE DO SUA");
	CALL SUBOPT_0x7
	__POINTW2MN _0x51,0
	RJMP _0xC1
; 0000 05E3     } else {
_0x50:
; 0000 05E4         glcd_outtextxy(0, 0, "LICH VAN NIEN");
	CALL SUBOPT_0x7
	__POINTW2MN _0x51,11
_0xC1:
	CALL _glcd_outtextxy
; 0000 05E5     }
; 0000 05E6 
; 0000 05E7     clear_rect_pixels(0, 10, 83, 17);
	LDI  R30,LOW(0)
	ST   -Y,R30
	LDI  R30,LOW(10)
	ST   -Y,R30
	LDI  R30,LOW(83)
	ST   -Y,R30
	LDI  R26,LOW(17)
	CALL SUBOPT_0x8
; 0000 05E8     glcd_setcolor(1);
; 0000 05E9     sprintf(line, "TIME %02u:%02u:%02u", hour, minute, second);
	CALL SUBOPT_0x9
	__POINTW1FN _0x0,25
	ST   -Y,R31
	ST   -Y,R30
	MOV  R30,R5
	CALL SUBOPT_0xA
	MOV  R30,R4
	CALL SUBOPT_0xA
	MOV  R30,R7
	CALL SUBOPT_0xA
	CALL SUBOPT_0xB
; 0000 05EA     glcd_outtextxy(0, 10, line);
	LDI  R30,LOW(10)
	CALL SUBOPT_0xC
; 0000 05EB 
; 0000 05EC     clear_rect_pixels(0, 20, 83, 37);
	LDI  R30,LOW(20)
	ST   -Y,R30
	LDI  R30,LOW(83)
	ST   -Y,R30
	LDI  R26,LOW(37)
	CALL SUBOPT_0x8
; 0000 05ED     glcd_setcolor(1);
; 0000 05EE     if (display_mode == DISPLAY_SOLAR) {
	TST  R8
	BRNE _0x53
; 0000 05EF         sprintf(line, "DL %02u/%02u/%04u", day, month, year);
	CALL SUBOPT_0x9
	__POINTW1FN _0x0,45
	ST   -Y,R31
	ST   -Y,R30
	MOV  R30,R6
	CALL SUBOPT_0xA
	MOV  R30,R9
	CALL SUBOPT_0xA
	MOVW R30,R10
	CALL SUBOPT_0xD
; 0000 05F0         glcd_outtextxy(0, 20, line);
	LDI  R30,LOW(20)
	CALL SUBOPT_0xC
; 0000 05F1         glcd_outtextxy(0, 30, "MODE DUONG");
	LDI  R30,LOW(30)
	ST   -Y,R30
	__POINTW2MN _0x51,25
	RJMP _0xC2
; 0000 05F2     } else {
_0x53:
; 0000 05F3         lunar = get_lunar_date(year, month, day);
	ST   -Y,R11
	ST   -Y,R10
	ST   -Y,R9
	MOV  R26,R6
	RCALL _get_lunar_date
	MOVW R26,R28
	CALL __COPYMML
; 0000 05F4         if (lunar.valid) {
	LDD  R30,Y+5
	CPI  R30,0
	BREQ _0x55
; 0000 05F5             sprintf(line, "AL %02u/%02u/%04u", lunar.day, lunar.month, lunar.year);
	CALL SUBOPT_0x9
	__POINTW1FN _0x0,74
	ST   -Y,R31
	ST   -Y,R30
	LDD  R30,Y+4
	CALL SUBOPT_0xA
	LDD  R30,Y+9
	CALL SUBOPT_0xA
	LDD  R30,Y+14
	LDD  R31,Y+14+1
	CALL SUBOPT_0xD
; 0000 05F6             glcd_outtextxy(0, 20, line);
	LDI  R30,LOW(20)
	ST   -Y,R30
	MOVW R26,R28
	ADIW R26,15
	CALL _glcd_outtextxy
; 0000 05F7             if (lunar.leap) {
	LDD  R30,Y+4
	CPI  R30,0
	BREQ _0x56
; 0000 05F8                 glcd_outtextxy(0, 30, "MODE AM N");
	CALL SUBOPT_0xE
	__POINTW2MN _0x51,36
	RJMP _0xC3
; 0000 05F9             } else {
_0x56:
; 0000 05FA                 glcd_outtextxy(0, 30, "MODE AM");
	CALL SUBOPT_0xE
	__POINTW2MN _0x51,46
_0xC3:
	CALL _glcd_outtextxy
; 0000 05FB             }
; 0000 05FC         } else {
	RJMP _0x58
_0x55:
; 0000 05FD             glcd_outtextxy(0, 20, "AL NO DATA");
	LDI  R30,LOW(0)
	ST   -Y,R30
	LDI  R30,LOW(20)
	ST   -Y,R30
	__POINTW2MN _0x51,54
	CALL _glcd_outtextxy
; 0000 05FE             glcd_outtextxy(0, 30, "THEM BANG AM");
	CALL SUBOPT_0xE
	__POINTW2MN _0x51,65
_0xC2:
	CALL _glcd_outtextxy
; 0000 05FF         }
_0x58:
; 0000 0600     }
; 0000 0601 
; 0000 0602     clear_rect_pixels(0, 40, 83, 47);
	CALL SUBOPT_0xF
	LDI  R30,LOW(83)
	ST   -Y,R30
	LDI  R26,LOW(47)
	CALL SUBOPT_0x8
; 0000 0603     glcd_setcolor(1);
; 0000 0604     if (edit_mode) {
	TST  R13
	BRNE PC+2
	RJMP _0x59
; 0000 0605         switch (edit_field) {
	MOV  R30,R12
	LDI  R31,0
; 0000 0606         case EDIT_HOUR:
	SBIW R30,0
	BRNE _0x5D
; 0000 0607             glcd_outtextxy(0, 40, "SUA GIO");
	CALL SUBOPT_0xF
	__POINTW2MN _0x51,78
	RJMP _0xC4
; 0000 0608             break;
; 0000 0609         case EDIT_MINUTE:
_0x5D:
	CPI  R30,LOW(0x1)
	LDI  R26,HIGH(0x1)
	CPC  R31,R26
	BRNE _0x5E
; 0000 060A             glcd_outtextxy(0, 40, "SUA PHUT");
	CALL SUBOPT_0xF
	__POINTW2MN _0x51,86
	RJMP _0xC4
; 0000 060B             break;
; 0000 060C         case EDIT_DAY:
_0x5E:
	CPI  R30,LOW(0x2)
	LDI  R26,HIGH(0x2)
	CPC  R31,R26
	BRNE _0x5F
; 0000 060D             glcd_outtextxy(0, 40, "SUA NGAY");
	CALL SUBOPT_0xF
	__POINTW2MN _0x51,95
	RJMP _0xC4
; 0000 060E             break;
; 0000 060F         case EDIT_MONTH:
_0x5F:
	CPI  R30,LOW(0x3)
	LDI  R26,HIGH(0x3)
	CPC  R31,R26
	BRNE _0x61
; 0000 0610             glcd_outtextxy(0, 40, "SUA THANG");
	CALL SUBOPT_0xF
	__POINTW2MN _0x51,104
	RJMP _0xC4
; 0000 0611             break;
; 0000 0612         default:
_0x61:
; 0000 0613             glcd_outtextxy(0, 40, "SUA NAM");
	CALL SUBOPT_0xF
	__POINTW2MN _0x51,114
_0xC4:
	CALL _glcd_outtextxy
; 0000 0614             break;
; 0000 0615         }
; 0000 0616 
; 0000 0617         input[0] = 'I';
	LDI  R30,LOW(73)
	STD  Y+6,R30
; 0000 0618         input[1] = ':';
	LDI  R30,LOW(58)
	STD  Y+7,R30
; 0000 0619         input[2] = (edit_digit_count > 0) ? (edit_digits[0] + '0') : '_';
	LDS  R26,_edit_digit_count
	CPI  R26,LOW(0x1)
	BRLO _0x62
	LDS  R30,_edit_digits
	LDI  R31,0
	ADIW R30,48
	RJMP _0x63
_0x62:
	LDI  R30,LOW(95)
_0x63:
	STD  Y+8,R30
; 0000 061A         input[3] = (edit_digit_count > 1) ? (edit_digits[1] + '0') : '_';
	LDS  R26,_edit_digit_count
	CPI  R26,LOW(0x2)
	BRLO _0x65
	__GETB1MN _edit_digits,1
	LDI  R31,0
	ADIW R30,48
	RJMP _0x66
_0x65:
	LDI  R30,LOW(95)
_0x66:
	STD  Y+9,R30
; 0000 061B         input[4] = 0;
	LDI  R30,LOW(0)
	STD  Y+10,R30
; 0000 061C 
; 0000 061D         if (edit_field == EDIT_YEAR) {
	LDI  R30,LOW(4)
	CP   R30,R12
	BRNE _0x68
; 0000 061E             input[2] = (edit_digit_count > 0) ? (edit_digits[0] + '0') : '_';
	LDS  R26,_edit_digit_count
	CPI  R26,LOW(0x1)
	BRLO _0x69
	LDS  R30,_edit_digits
	LDI  R31,0
	ADIW R30,48
	RJMP _0x6A
_0x69:
	LDI  R30,LOW(95)
_0x6A:
	STD  Y+8,R30
; 0000 061F             input[3] = (edit_digit_count > 1) ? (edit_digits[1] + '0') : '_';
	LDS  R26,_edit_digit_count
	CPI  R26,LOW(0x2)
	BRLO _0x6C
	__GETB1MN _edit_digits,1
	LDI  R31,0
	ADIW R30,48
	RJMP _0x6D
_0x6C:
	LDI  R30,LOW(95)
_0x6D:
	STD  Y+9,R30
; 0000 0620             input[4] = (edit_digit_count > 2) ? (edit_digits[2] + '0') : '_';
	LDS  R26,_edit_digit_count
	CPI  R26,LOW(0x3)
	BRLO _0x6F
	__GETB1MN _edit_digits,2
	LDI  R31,0
	ADIW R30,48
	RJMP _0x70
_0x6F:
	LDI  R30,LOW(95)
_0x70:
	STD  Y+10,R30
; 0000 0621             input[5] = (edit_digit_count > 3) ? (edit_digits[3] + '0') : '_';
	LDS  R26,_edit_digit_count
	CPI  R26,LOW(0x4)
	BRLO _0x72
	__GETB1MN _edit_digits,3
	LDI  R31,0
	ADIW R30,48
	RJMP _0x73
_0x72:
	LDI  R30,LOW(95)
_0x73:
	STD  Y+11,R30
; 0000 0622             input[6] = 0;
	LDI  R30,LOW(0)
	STD  Y+12,R30
; 0000 0623         }
; 0000 0624 
; 0000 0625         glcd_outtextxy(54, 40, input);
_0x68:
	LDI  R30,LOW(54)
	ST   -Y,R30
	LDI  R30,LOW(40)
	ST   -Y,R30
	MOVW R26,R28
	ADIW R26,8
	RJMP _0xC5
; 0000 0626     } else {
_0x59:
; 0000 0627         glcd_outtextxy(0, 40, "BT2 GIU: SUA");
	CALL SUBOPT_0xF
	__POINTW2MN _0x51,122
_0xC5:
	CALL _glcd_outtextxy
; 0000 0628     }
; 0000 0629 }
	ADIW R28,35
	RET
; .FEND

	.DSEG
_0x51:
	.BYTE 0x87
;
;void clear_edit_input(void)
; 0000 062C {

	.CSEG
_clear_edit_input:
; .FSTART _clear_edit_input
; 0000 062D     edit_digit_count = 0;
	LDI  R30,LOW(0)
	STS  _edit_digit_count,R30
; 0000 062E     edit_digits[0] = 0;
	STS  _edit_digits,R30
; 0000 062F     edit_digits[1] = 0;
	__PUTB1MN _edit_digits,1
; 0000 0630     edit_digits[2] = 0;
	__PUTB1MN _edit_digits,2
; 0000 0631     edit_digits[3] = 0;
	__PUTB1MN _edit_digits,3
; 0000 0632 }
	RET
; .FEND
;
;void next_edit_field(void)
; 0000 0635 {
_next_edit_field:
; .FSTART _next_edit_field
; 0000 0636     clear_edit_input();
	RCALL _clear_edit_input
; 0000 0637     edit_field++;
	INC  R12
; 0000 0638     if (edit_field > EDIT_YEAR) edit_field = EDIT_HOUR;
	LDI  R30,LOW(4)
	CP   R30,R12
	BRSH _0x76
	CLR  R12
; 0000 0639 }
_0x76:
	RET
; .FEND
;
;void apply_edit_value(void)
; 0000 063C {
_apply_edit_value:
; .FSTART _apply_edit_value
; 0000 063D     unsigned int value = 0;
; 0000 063E     unsigned char i;
; 0000 063F     unsigned char new_day = day;
; 0000 0640     unsigned char new_month = month;
; 0000 0641     unsigned int new_year = year;
; 0000 0642 
; 0000 0643     for (i = 0; i < edit_digit_count; i++) {
	SBIW R28,2
	CALL __SAVELOCR6
;	value -> R16,R17
;	i -> R19
;	new_day -> R18
;	new_month -> R21
;	new_year -> Y+6
	__GETWRN 16,17,0
	MOV  R18,R6
	MOV  R21,R9
	__PUTWSR 10,11,6
	LDI  R19,LOW(0)
_0x78:
	LDS  R30,_edit_digit_count
	CP   R19,R30
	BRSH _0x79
; 0000 0644         value = value * 10 + edit_digits[i];
	__MULBNWRU 16,17,10
	MOVW R26,R30
	MOV  R30,R19
	LDI  R31,0
	SUBI R30,LOW(-_edit_digits)
	SBCI R31,HIGH(-_edit_digits)
	LD   R30,Z
	LDI  R31,0
	ADD  R30,R26
	ADC  R31,R27
	MOVW R16,R30
; 0000 0645     }
	SUBI R19,-1
	RJMP _0x78
_0x79:
; 0000 0646 
; 0000 0647     if (edit_field == EDIT_HOUR && edit_digit_count == 2 && value < 24) {
	TST  R12
	BRNE _0x7B
	LDS  R26,_edit_digit_count
	CPI  R26,LOW(0x2)
	BRNE _0x7B
	__CPWRN 16,17,24
	BRLO _0x7C
_0x7B:
	RJMP _0x7A
_0x7C:
; 0000 0648         hour = (unsigned char)value;
	MOV  R5,R16
; 0000 0649         second = 0;
	CLR  R7
; 0000 064A     } else if (edit_field == EDIT_MINUTE && edit_digit_count == 2 && value < 60) {
	RJMP _0x7D
_0x7A:
	LDI  R30,LOW(1)
	CP   R30,R12
	BRNE _0x7F
	LDS  R26,_edit_digit_count
	CPI  R26,LOW(0x2)
	BRNE _0x7F
	__CPWRN 16,17,60
	BRLO _0x80
_0x7F:
	RJMP _0x7E
_0x80:
; 0000 064B         minute = (unsigned char)value;
	MOV  R4,R16
; 0000 064C         second = 0;
	CLR  R7
; 0000 064D     } else if (edit_field == EDIT_DAY && edit_digit_count == 2) {
	RJMP _0x81
_0x7E:
	LDI  R30,LOW(2)
	CP   R30,R12
	BRNE _0x83
	LDS  R26,_edit_digit_count
	CPI  R26,LOW(0x2)
	BREQ _0x84
_0x83:
	RJMP _0x82
_0x84:
; 0000 064E         new_day = (unsigned char)value;
	MOV  R18,R16
; 0000 064F         if (valid_date(new_day, month, year)) day = new_day;
	ST   -Y,R18
	ST   -Y,R9
	MOVW R26,R10
	RCALL _valid_date
	CPI  R30,0
	BREQ _0x85
	MOV  R6,R18
; 0000 0650     } else if (edit_field == EDIT_MONTH && edit_digit_count == 2) {
_0x85:
	RJMP _0x86
_0x82:
	LDI  R30,LOW(3)
	CP   R30,R12
	BRNE _0x88
	LDS  R26,_edit_digit_count
	CPI  R26,LOW(0x2)
	BREQ _0x89
_0x88:
	RJMP _0x87
_0x89:
; 0000 0651         new_month = (unsigned char)value;
	MOV  R21,R16
; 0000 0652         if (valid_date(day, new_month, year)) month = new_month;
	ST   -Y,R6
	ST   -Y,R21
	MOVW R26,R10
	RCALL _valid_date
	CPI  R30,0
	BREQ _0x8A
	MOV  R9,R21
; 0000 0653     } else if (edit_field == EDIT_YEAR && edit_digit_count == 4) {
_0x8A:
	RJMP _0x8B
_0x87:
	LDI  R30,LOW(4)
	CP   R30,R12
	BRNE _0x8D
	LDS  R26,_edit_digit_count
	CPI  R26,LOW(0x4)
	BREQ _0x8E
_0x8D:
	RJMP _0x8C
_0x8E:
; 0000 0654         new_year = value;
	__PUTWSR 16,17,6
; 0000 0655         if (valid_date(day, month, new_year)) year = new_year;
	ST   -Y,R6
	ST   -Y,R9
	LDD  R26,Y+8
	LDD  R27,Y+8+1
	RCALL _valid_date
	CPI  R30,0
	BREQ _0x8F
	__GETWRS 10,11,6
; 0000 0656     }
_0x8F:
; 0000 0657 }
_0x8C:
_0x8B:
_0x86:
_0x81:
_0x7D:
	CALL __LOADLOCR6
	ADIW R28,8
	RET
; .FEND
;
;void handle_digit(unsigned char digit)
; 0000 065A {
_handle_digit:
; .FSTART _handle_digit
; 0000 065B     unsigned char max_digits;
; 0000 065C 
; 0000 065D     if (!edit_mode) return;
	ST   -Y,R26
	ST   -Y,R17
;	digit -> Y+1
;	max_digits -> R17
	TST  R13
	BRNE _0x90
	LDD  R17,Y+0
	JMP  _0x212000C
; 0000 065E 
; 0000 065F     max_digits = (edit_field == EDIT_YEAR) ? 4 : 2;
_0x90:
	LDI  R30,LOW(4)
	CP   R30,R12
	BRNE _0x91
	RJMP _0x92
_0x91:
	LDI  R30,LOW(2)
_0x92:
	MOV  R17,R30
; 0000 0660     if (edit_digit_count >= max_digits) {
	LDS  R26,_edit_digit_count
	CP   R26,R17
	BRLO _0x94
; 0000 0661         clear_edit_input();
	RCALL _clear_edit_input
; 0000 0662     }
; 0000 0663 
; 0000 0664     edit_digits[edit_digit_count] = digit;
_0x94:
	LDS  R30,_edit_digit_count
	LDI  R31,0
	SUBI R30,LOW(-_edit_digits)
	SBCI R31,HIGH(-_edit_digits)
	LDD  R26,Y+1
	STD  Z+0,R26
; 0000 0665     edit_digit_count++;
	LDS  R30,_edit_digit_count
	SUBI R30,-LOW(1)
	STS  _edit_digit_count,R30
; 0000 0666 
; 0000 0667     if (edit_digit_count == max_digits) {
	LDS  R26,_edit_digit_count
	CP   R17,R26
	BRNE _0x95
; 0000 0668         apply_edit_value();
	RCALL _apply_edit_value
; 0000 0669     }
; 0000 066A 
; 0000 066B     need_redraw = 1;
_0x95:
	LDI  R30,LOW(1)
	STS  _need_redraw,R30
; 0000 066C }
	LDD  R17,Y+0
	JMP  _0x212000C
; .FEND
;
;void keypad_rows_idle(void)
; 0000 066F {
_keypad_rows_idle:
; .FSTART _keypad_rows_idle
; 0000 0670     PORTC = 0x70;
	LDI  R30,LOW(112)
	OUT  0x15,R30
; 0000 0671     PORTE = 0x03;
	LDI  R30,LOW(3)
	OUT  0x3,R30
; 0000 0672     PORTD = 0x81;
	RJMP _0x212000E
; 0000 0673 }
; .FEND
;
;unsigned char scan_keypad_raw(void)
; 0000 0676 {
_scan_keypad_raw:
; .FSTART _scan_keypad_raw
; 0000 0677     unsigned char r;
; 0000 0678 
; 0000 0679     /*
; 0000 067A        ROW1 = PC6, ROW2 = PE1, ROW3 = PD0.
; 0000 067B        COL1 = PC4, COL2 = PC5, COL3 = PE0.
; 0000 067C     */
; 0000 067D     for (r = 0; r < 3; r++) {
	ST   -Y,R17
;	r -> R17
	LDI  R17,LOW(0)
_0x97:
	CPI  R17,3
	BRSH _0x98
; 0000 067E         if (r == 0) {
	CPI  R17,0
	BRNE _0x99
; 0000 067F             PORTC = 0x30;
	LDI  R30,LOW(48)
	OUT  0x15,R30
; 0000 0680             PORTE = 0x03;
	LDI  R30,LOW(3)
	OUT  0x3,R30
; 0000 0681             PORTD = 0x81;
	LDI  R30,LOW(129)
	OUT  0x12,R30
; 0000 0682         }
; 0000 0683 
; 0000 0684         if (r == 1) {
_0x99:
	CPI  R17,1
	BRNE _0x9A
; 0000 0685             PORTC = 0x70;
	LDI  R30,LOW(112)
	OUT  0x15,R30
; 0000 0686             PORTE = 0x01;
	LDI  R30,LOW(1)
	OUT  0x3,R30
; 0000 0687             PORTD = 0x81;
	LDI  R30,LOW(129)
	OUT  0x12,R30
; 0000 0688         }
; 0000 0689 
; 0000 068A         if (r == 2) {
_0x9A:
	CPI  R17,2
	BRNE _0x9B
; 0000 068B             PORTC = 0x70;
	LDI  R30,LOW(112)
	OUT  0x15,R30
; 0000 068C             PORTE = 0x03;
	LDI  R30,LOW(3)
	OUT  0x3,R30
; 0000 068D             PORTD = 0x80;
	LDI  R30,LOW(128)
	OUT  0x12,R30
; 0000 068E         }
; 0000 068F 
; 0000 0690         delay_us(10);
_0x9B:
	__DELAY_USB 27
; 0000 0691 
; 0000 0692         if ((PINC & 0x10) == 0) {
	SBIC 0x13,4
	RJMP _0x9C
; 0000 0693             keypad_rows_idle();
	CALL SUBOPT_0x10
; 0000 0694             return keypad_value[r][0];
	SUBI R30,LOW(-_keypad_value)
	SBCI R31,HIGH(-_keypad_value)
	LD   R30,Z
	RJMP _0x212000F
; 0000 0695         }
; 0000 0696 
; 0000 0697         if ((PINC & 0x20) == 0) {
_0x9C:
	SBIC 0x13,5
	RJMP _0x9D
; 0000 0698             keypad_rows_idle();
	CALL SUBOPT_0x10
; 0000 0699             return keypad_value[r][1];
	__ADDW1MN _keypad_value,1
	LD   R30,Z
	RJMP _0x212000F
; 0000 069A         }
; 0000 069B 
; 0000 069C         if ((PINE & 0x01) == 0) {
_0x9D:
	SBIC 0x1,0
	RJMP _0x9E
; 0000 069D             keypad_rows_idle();
	CALL SUBOPT_0x10
; 0000 069E             return keypad_value[r][2];
	__ADDW1MN _keypad_value,2
	LD   R30,Z
	RJMP _0x212000F
; 0000 069F         }
; 0000 06A0     }
_0x9E:
	SUBI R17,-1
	RJMP _0x97
_0x98:
; 0000 06A1 
; 0000 06A2     keypad_rows_idle();
	RCALL _keypad_rows_idle
; 0000 06A3     return 0;
	LDI  R30,LOW(0)
	RJMP _0x212000F
; 0000 06A4 }
; .FEND
;
;unsigned char debounce_state(unsigned char raw,
; 0000 06A7                              unsigned char *stable,
; 0000 06A8                              unsigned char *last_raw,
; 0000 06A9                              unsigned char *count)
; 0000 06AA {
_debounce_state:
; .FSTART _debounce_state
; 0000 06AB     if (raw == *last_raw) {
	ST   -Y,R27
	ST   -Y,R26
;	raw -> Y+6
;	*stable -> Y+4
;	*last_raw -> Y+2
;	*count -> Y+0
	LDD  R26,Y+2
	LDD  R27,Y+2+1
	LD   R30,X
	LDD  R26,Y+6
	CP   R30,R26
	BRNE _0x9F
; 0000 06AC         if (*count < DEBOUNCE_TICKS) (*count)++;
	LD   R26,Y
	LDD  R27,Y+1
	LD   R26,X
	CPI  R26,LOW(0x4)
	BRSH _0xA0
	LD   R26,Y
	LDD  R27,Y+1
	LD   R30,X
	SUBI R30,-LOW(1)
	ST   X,R30
; 0000 06AD     } else {
_0xA0:
	RJMP _0xA1
_0x9F:
; 0000 06AE         *last_raw = raw;
	LDD  R30,Y+6
	LDD  R26,Y+2
	LDD  R27,Y+2+1
	ST   X,R30
; 0000 06AF         *count = 0;
	LD   R26,Y
	LDD  R27,Y+1
	LDI  R30,LOW(0)
	ST   X,R30
; 0000 06B0     }
_0xA1:
; 0000 06B1 
; 0000 06B2     if (*count >= DEBOUNCE_TICKS && *stable != raw) {
	LD   R26,Y
	LDD  R27,Y+1
	LD   R26,X
	CPI  R26,LOW(0x4)
	BRLO _0xA3
	LDD  R26,Y+4
	LDD  R27,Y+4+1
	LD   R26,X
	LDD  R30,Y+6
	CP   R30,R26
	BRNE _0xA4
_0xA3:
	RJMP _0xA2
_0xA4:
; 0000 06B3         *stable = raw;
	LDD  R30,Y+6
	LDD  R26,Y+4
	LDD  R27,Y+4+1
	ST   X,R30
; 0000 06B4         if (raw != 0) {
	CPI  R30,0
	BREQ _0xA5
; 0000 06B5             return 1;
	LDI  R30,LOW(1)
	RJMP _0x2120010
; 0000 06B6         }
; 0000 06B7     }
_0xA5:
; 0000 06B8 
; 0000 06B9     return 0;
_0xA2:
	LDI  R30,LOW(0)
_0x2120010:
	ADIW R28,7
	RET
; 0000 06BA }
; .FEND
;
;void timer0_poll_keys(void)
; 0000 06BD {
_timer0_poll_keys:
; .FSTART _timer0_poll_keys
; 0000 06BE     static unsigned char bt1_stable = 0;
; 0000 06BF     static unsigned char bt1_last = 0;
; 0000 06C0     static unsigned char bt1_count = 0;
; 0000 06C1     static unsigned char bt2_stable = 0;
; 0000 06C2     static unsigned char bt2_last = 0;
; 0000 06C3     static unsigned char bt2_count = 0;
; 0000 06C4     static unsigned char bt3_stable = 0;
; 0000 06C5     static unsigned char bt3_last = 0;
; 0000 06C6     static unsigned char bt3_count = 0;
; 0000 06C7     static unsigned char key_stable = 0;
; 0000 06C8     static unsigned char key_last = 0;
; 0000 06C9     static unsigned char key_count = 0;
; 0000 06CA     static unsigned int bt2_hold_ms = 0;
; 0000 06CB     static unsigned char bt2_hold_sent = 0;
; 0000 06CC     unsigned char raw_key;
; 0000 06CD 
; 0000 06CE     if (debounce_state((BT1_MODE == BTN_PRESSED), &bt1_stable, &bt1_last, &bt1_count)) {
	ST   -Y,R17
;	raw_key -> R17
	LDI  R26,0
	SBIC 0x16,2
	LDI  R26,1
	CALL SUBOPT_0x11
	LDI  R30,LOW(_bt1_stable_S0000011000)
	LDI  R31,HIGH(_bt1_stable_S0000011000)
	ST   -Y,R31
	ST   -Y,R30
	LDI  R30,LOW(_bt1_last_S0000011000)
	LDI  R31,HIGH(_bt1_last_S0000011000)
	ST   -Y,R31
	ST   -Y,R30
	LDI  R26,LOW(_bt1_count_S0000011000)
	LDI  R27,HIGH(_bt1_count_S0000011000)
	RCALL _debounce_state
	CPI  R30,0
	BREQ _0xA6
; 0000 06CF         bt1_event = 1;
	LDI  R30,LOW(1)
	STS  _bt1_event,R30
; 0000 06D0     }
; 0000 06D1 
; 0000 06D2     if (debounce_state((BT3_ZERO == BTN_PRESSED), &bt3_stable, &bt3_last, &bt3_count)) {
_0xA6:
	LDI  R26,0
	SBIC 0x16,0
	LDI  R26,1
	CALL SUBOPT_0x11
	LDI  R30,LOW(_bt3_stable_S0000011000)
	LDI  R31,HIGH(_bt3_stable_S0000011000)
	ST   -Y,R31
	ST   -Y,R30
	LDI  R30,LOW(_bt3_last_S0000011000)
	LDI  R31,HIGH(_bt3_last_S0000011000)
	ST   -Y,R31
	ST   -Y,R30
	LDI  R26,LOW(_bt3_count_S0000011000)
	LDI  R27,HIGH(_bt3_count_S0000011000)
	RCALL _debounce_state
	CPI  R30,0
	BREQ _0xA7
; 0000 06D3         bt3_event = 1;
	LDI  R30,LOW(1)
	STS  _bt3_event,R30
; 0000 06D4     }
; 0000 06D5 
; 0000 06D6     debounce_state((BT2_EDIT == BTN_PRESSED), &bt2_stable, &bt2_last, &bt2_count);
_0xA7:
	LDI  R26,0
	SBIC 0x16,3
	LDI  R26,1
	CALL SUBOPT_0x11
	LDI  R30,LOW(_bt2_stable_S0000011000)
	LDI  R31,HIGH(_bt2_stable_S0000011000)
	ST   -Y,R31
	ST   -Y,R30
	LDI  R30,LOW(_bt2_last_S0000011000)
	LDI  R31,HIGH(_bt2_last_S0000011000)
	ST   -Y,R31
	ST   -Y,R30
	LDI  R26,LOW(_bt2_count_S0000011000)
	LDI  R27,HIGH(_bt2_count_S0000011000)
	RCALL _debounce_state
; 0000 06D7     if (bt2_stable) {
	LDS  R30,_bt2_stable_S0000011000
	CPI  R30,0
	BREQ _0xA8
; 0000 06D8         if (!bt2_hold_sent) {
	LDS  R30,_bt2_hold_sent_S0000011000
	CPI  R30,0
	BRNE _0xA9
; 0000 06D9             bt2_hold_ms += POLL_MS;
	LDS  R30,_bt2_hold_ms_S0000011000
	LDS  R31,_bt2_hold_ms_S0000011000+1
	ADIW R30,5
	STS  _bt2_hold_ms_S0000011000,R30
	STS  _bt2_hold_ms_S0000011000+1,R31
; 0000 06DA             if (bt2_hold_ms >= BT2_HOLD_MS) {
	LDS  R26,_bt2_hold_ms_S0000011000
	LDS  R27,_bt2_hold_ms_S0000011000+1
	CPI  R26,LOW(0x3E8)
	LDI  R30,HIGH(0x3E8)
	CPC  R27,R30
	BRLO _0xAA
; 0000 06DB                 bt2_hold_event = 1;
	LDI  R30,LOW(1)
	STS  _bt2_hold_event,R30
; 0000 06DC                 bt2_hold_sent = 1;
	STS  _bt2_hold_sent_S0000011000,R30
; 0000 06DD             }
; 0000 06DE         }
_0xAA:
; 0000 06DF     } else {
_0xA9:
	RJMP _0xAB
_0xA8:
; 0000 06E0         if (bt2_hold_ms > 0 && !bt2_hold_sent) {
	LDS  R26,_bt2_hold_ms_S0000011000
	LDS  R27,_bt2_hold_ms_S0000011000+1
	CALL __CPW02
	BRSH _0xAD
	LDS  R30,_bt2_hold_sent_S0000011000
	CPI  R30,0
	BREQ _0xAE
_0xAD:
	RJMP _0xAC
_0xAE:
; 0000 06E1             bt2_short_event = 1;
	LDI  R30,LOW(1)
	STS  _bt2_short_event,R30
; 0000 06E2         }
; 0000 06E3         bt2_hold_ms = 0;
_0xAC:
	LDI  R30,LOW(0)
	STS  _bt2_hold_ms_S0000011000,R30
	STS  _bt2_hold_ms_S0000011000+1,R30
; 0000 06E4         bt2_hold_sent = 0;
	STS  _bt2_hold_sent_S0000011000,R30
; 0000 06E5     }
_0xAB:
; 0000 06E6 
; 0000 06E7     raw_key = scan_keypad_raw();
	RCALL _scan_keypad_raw
	MOV  R17,R30
; 0000 06E8     if (debounce_state(raw_key, &key_stable, &key_last, &key_count)) {
	ST   -Y,R17
	LDI  R30,LOW(_key_stable_S0000011000)
	LDI  R31,HIGH(_key_stable_S0000011000)
	ST   -Y,R31
	ST   -Y,R30
	LDI  R30,LOW(_key_last_S0000011000)
	LDI  R31,HIGH(_key_last_S0000011000)
	ST   -Y,R31
	ST   -Y,R30
	LDI  R26,LOW(_key_count_S0000011000)
	LDI  R27,HIGH(_key_count_S0000011000)
	RCALL _debounce_state
	CPI  R30,0
	BREQ _0xAF
; 0000 06E9         if (!keypad_event) {
	LDS  R30,_keypad_event
	CPI  R30,0
	BRNE _0xB0
; 0000 06EA             keypad_event_value = raw_key;
	STS  _keypad_event_value,R17
; 0000 06EB             keypad_event = 1;
	LDI  R30,LOW(1)
	STS  _keypad_event,R30
; 0000 06EC         }
; 0000 06ED     }
_0xB0:
; 0000 06EE }
_0xAF:
_0x212000F:
	LD   R17,Y+
	RET
; .FEND
;
;void handle_bt1(void)
; 0000 06F1 {
_handle_bt1:
; .FSTART _handle_bt1
; 0000 06F2     if (bt1_event) {
	LDS  R30,_bt1_event
	CPI  R30,0
	BREQ _0xB1
; 0000 06F3         #asm("cli")
	cli
; 0000 06F4         bt1_event = 0;
	LDI  R30,LOW(0)
	STS  _bt1_event,R30
; 0000 06F5         #asm("sei")
	sei
; 0000 06F6         if (!edit_mode) {
	TST  R13
	BRNE _0xB2
; 0000 06F7             display_mode = !display_mode;
	MOV  R30,R8
	CALL __LNEGB1
	MOV  R8,R30
; 0000 06F8             need_redraw = 1;
	LDI  R30,LOW(1)
	STS  _need_redraw,R30
; 0000 06F9         }
; 0000 06FA     }
_0xB2:
; 0000 06FB }
_0xB1:
	RET
; .FEND
;
;void handle_bt3_zero(void)
; 0000 06FE {
_handle_bt3_zero:
; .FSTART _handle_bt3_zero
; 0000 06FF     if (bt3_event) {
	LDS  R30,_bt3_event
	CPI  R30,0
	BREQ _0xB3
; 0000 0700         #asm("cli")
	cli
; 0000 0701         bt3_event = 0;
	LDI  R30,LOW(0)
	STS  _bt3_event,R30
; 0000 0702         #asm("sei")
	sei
; 0000 0703         handle_digit(0);
	LDI  R26,LOW(0)
	RCALL _handle_digit
; 0000 0704     }
; 0000 0705 }
_0xB3:
	RET
; .FEND
;
;void handle_bt2_edit(void)
; 0000 0708 {
_handle_bt2_edit:
; .FSTART _handle_bt2_edit
; 0000 0709     if (bt2_hold_event) {
	LDS  R30,_bt2_hold_event
	CPI  R30,0
	BREQ _0xB4
; 0000 070A         #asm("cli")
	cli
; 0000 070B         bt2_hold_event = 0;
	LDI  R30,LOW(0)
	STS  _bt2_hold_event,R30
; 0000 070C         bt2_short_event = 0;
	STS  _bt2_short_event,R30
; 0000 070D         #asm("sei")
	sei
; 0000 070E         edit_mode = !edit_mode;
	MOV  R30,R13
	CALL __LNEGB1
	MOV  R13,R30
; 0000 070F         clear_edit_input();
	RCALL _clear_edit_input
; 0000 0710         edit_field = EDIT_HOUR;
	CLR  R12
; 0000 0711         need_redraw = 1;
	LDI  R30,LOW(1)
	STS  _need_redraw,R30
; 0000 0712         return;
	RET
; 0000 0713     }
; 0000 0714 
; 0000 0715     if (bt2_short_event) {
_0xB4:
	LDS  R30,_bt2_short_event
	CPI  R30,0
	BREQ _0xB5
; 0000 0716         #asm("cli")
	cli
; 0000 0717         bt2_short_event = 0;
	LDI  R30,LOW(0)
	STS  _bt2_short_event,R30
; 0000 0718         #asm("sei")
	sei
; 0000 0719         if (edit_mode) {
	TST  R13
	BREQ _0xB6
; 0000 071A             next_edit_field();
	RCALL _next_edit_field
; 0000 071B             need_redraw = 1;
	LDI  R30,LOW(1)
	STS  _need_redraw,R30
; 0000 071C         }
; 0000 071D     }
_0xB6:
; 0000 071E }
_0xB5:
	RET
; .FEND
;
;void timer1_init(void)
; 0000 0721 {
_timer1_init:
; .FSTART _timer1_init
; 0000 0722     /*
; 0000 0723        CodeWizardAVR:
; 0000 0724        Clock = 8 MHz, Timer1 clock = 31.250 kHz, CTC top = OCR1A.
; 0000 0725        OCR1A = 0x7A11 = 31249, tao ngat moi 1 giay.
; 0000 0726     */
; 0000 0727     TCCR1A = (0<<COM1A1) | (0<<COM1A0) | (0<<COM1B1) | (0<<COM1B0) |
; 0000 0728              (0<<COM1C1) | (0<<COM1C0) | (0<<WGM11) | (0<<WGM10);
	LDI  R30,LOW(0)
	OUT  0x2F,R30
; 0000 0729     TCCR1B = (0<<ICNC1) | (0<<ICES1) | (0<<WGM13) | (1<<WGM12) |
; 0000 072A              (1<<CS12) | (0<<CS11) | (0<<CS10);
	LDI  R30,LOW(12)
	OUT  0x2E,R30
; 0000 072B     TCNT1H = 0x00;
	LDI  R30,LOW(0)
	OUT  0x2D,R30
; 0000 072C     TCNT1L = 0x00;
	OUT  0x2C,R30
; 0000 072D     ICR1H = 0x00;
	OUT  0x27,R30
; 0000 072E     ICR1L = 0x00;
	OUT  0x26,R30
; 0000 072F     OCR1AH = 0x7A;
	LDI  R30,LOW(122)
	OUT  0x2B,R30
; 0000 0730     OCR1AL = 0x11;
	LDI  R30,LOW(17)
	OUT  0x2A,R30
; 0000 0731     OCR1BH = 0x00;
	LDI  R30,LOW(0)
	OUT  0x29,R30
; 0000 0732     OCR1BL = 0x00;
	OUT  0x28,R30
; 0000 0733     OCR1CH = 0x00;
	STS  121,R30
; 0000 0734     OCR1CL = 0x00;
	STS  120,R30
; 0000 0735 
; 0000 0736     TIMSK = (0<<OCIE2) | (0<<TOIE2) | (0<<TICIE1) | (1<<OCIE1A) |
; 0000 0737             (0<<OCIE1B) | (0<<TOIE1) | (0<<OCIE0) | (0<<TOIE0);
	LDI  R30,LOW(16)
	OUT  0x37,R30
; 0000 0738     ETIMSK = (0<<TICIE3) | (0<<OCIE3A) | (0<<OCIE3B) | (0<<TOIE3) |
; 0000 0739              (0<<OCIE3C) | (0<<OCIE1C);
	LDI  R30,LOW(0)
	STS  125,R30
; 0000 073A }
	RET
; .FEND
;
;void timer0_init(void)
; 0000 073D {
_timer0_init:
; .FSTART _timer0_init
; 0000 073E     /*
; 0000 073F        Timer0 tao ngat moi gan 5 ms de quet phim.
; 0000 0740        F_CPU = 8 MHz, prescaler = 256:
; 0000 0741        8,000,000 / 256 = 31,250 Hz.
; 0000 0742        OCR0 = 155 -> 156 dem -> 4.992 ms.
; 0000 0743     */
; 0000 0744     ASSR = 0<<AS0;
	LDI  R30,LOW(0)
	OUT  0x30,R30
; 0000 0745     TCCR0 = (0<<WGM00) | (0<<COM01) | (0<<COM00) | (1<<WGM01) |
; 0000 0746             (1<<CS02) | (0<<CS01) | (0<<CS00);
	LDI  R30,LOW(12)
	OUT  0x33,R30
; 0000 0747     TCNT0 = 0x00;
	LDI  R30,LOW(0)
	OUT  0x32,R30
; 0000 0748     OCR0 = 155;
	LDI  R30,LOW(155)
	OUT  0x31,R30
; 0000 0749     TIMSK |= (1<<OCIE0);
	IN   R30,0x37
	ORI  R30,2
	OUT  0x37,R30
; 0000 074A }
	RET
; .FEND
;
;void codewizard_peripheral_init(void)
; 0000 074D {
_codewizard_peripheral_init:
; .FSTART _codewizard_peripheral_init
; 0000 074E     ASSR = 0<<AS0;
	LDI  R30,LOW(0)
	OUT  0x30,R30
; 0000 074F     TCCR0 = (0<<WGM00) | (0<<COM01) | (0<<COM00) | (0<<WGM01) |
; 0000 0750             (0<<CS02) | (0<<CS01) | (0<<CS00);
	OUT  0x33,R30
; 0000 0751     TCNT0 = 0x00;
	OUT  0x32,R30
; 0000 0752     OCR0 = 0x00;
	OUT  0x31,R30
; 0000 0753 
; 0000 0754     TCCR2 = (0<<WGM20) | (0<<COM21) | (0<<COM20) | (0<<WGM21) |
; 0000 0755             (0<<CS22) | (0<<CS21) | (0<<CS20);
	OUT  0x25,R30
; 0000 0756     TCNT2 = 0x00;
	OUT  0x24,R30
; 0000 0757     OCR2 = 0x00;
	OUT  0x23,R30
; 0000 0758 
; 0000 0759     TCCR3A = (0<<COM3A1) | (0<<COM3A0) | (0<<COM3B1) | (0<<COM3B0) |
; 0000 075A              (0<<COM3C1) | (0<<COM3C0) | (0<<WGM31) | (0<<WGM30);
	STS  139,R30
; 0000 075B     TCCR3B = (0<<ICNC3) | (0<<ICES3) | (0<<WGM33) | (0<<WGM32) |
; 0000 075C              (0<<CS32) | (0<<CS31) | (0<<CS30);
	STS  138,R30
; 0000 075D     TCNT3H = 0x00;
	STS  137,R30
; 0000 075E     TCNT3L = 0x00;
	STS  136,R30
; 0000 075F     ICR3H = 0x00;
	STS  129,R30
; 0000 0760     ICR3L = 0x00;
	STS  128,R30
; 0000 0761     OCR3AH = 0x00;
	STS  135,R30
; 0000 0762     OCR3AL = 0x00;
	STS  134,R30
; 0000 0763     OCR3BH = 0x00;
	STS  133,R30
; 0000 0764     OCR3BL = 0x00;
	STS  132,R30
; 0000 0765     OCR3CH = 0x00;
	STS  131,R30
; 0000 0766     OCR3CL = 0x00;
	STS  130,R30
; 0000 0767 
; 0000 0768     EICRA = (0<<ISC31) | (0<<ISC30) | (0<<ISC21) | (0<<ISC20) |
; 0000 0769             (0<<ISC11) | (0<<ISC10) | (0<<ISC01) | (0<<ISC00);
	STS  106,R30
; 0000 076A     EICRB = (0<<ISC71) | (0<<ISC70) | (0<<ISC61) | (0<<ISC60) |
; 0000 076B             (0<<ISC51) | (0<<ISC50) | (0<<ISC41) | (0<<ISC40);
	OUT  0x3A,R30
; 0000 076C     EIMSK = (0<<INT7) | (0<<INT6) | (0<<INT5) | (0<<INT4) |
; 0000 076D             (0<<INT3) | (0<<INT2) | (0<<INT1) | (0<<INT0);
	OUT  0x39,R30
; 0000 076E 
; 0000 076F     UCSR0B = (0<<RXCIE0) | (0<<TXCIE0) | (0<<UDRIE0) | (0<<RXEN0) |
; 0000 0770              (0<<TXEN0) | (0<<UCSZ02) | (0<<RXB80) | (0<<TXB80);
	OUT  0xA,R30
; 0000 0771     UCSR1B = (0<<RXCIE1) | (0<<TXCIE1) | (0<<UDRIE1) | (0<<RXEN1) |
; 0000 0772              (0<<TXEN1) | (0<<UCSZ12) | (0<<RXB81) | (0<<TXB81);
	STS  154,R30
; 0000 0773 
; 0000 0774     ACSR = (1<<ACD) | (0<<ACBG) | (0<<ACO) | (0<<ACI) |
; 0000 0775            (0<<ACIE) | (0<<ACIC) | (0<<ACIS1) | (0<<ACIS0);
	LDI  R30,LOW(128)
	OUT  0x8,R30
; 0000 0776     SFIOR = (0<<ACME);
	LDI  R30,LOW(0)
	OUT  0x20,R30
; 0000 0777 
; 0000 0778     ADCSRA = (0<<ADEN) | (0<<ADSC) | (0<<ADFR) | (0<<ADIF) |
; 0000 0779              (0<<ADIE) | (0<<ADPS2) | (0<<ADPS1) | (0<<ADPS0);
	OUT  0x6,R30
; 0000 077A 
; 0000 077B     SPCR = (0<<SPIE) | (0<<SPE) | (0<<DORD) | (0<<MSTR) |
; 0000 077C            (0<<CPOL) | (0<<CPHA) | (0<<SPR1) | (0<<SPR0);
	OUT  0xD,R30
; 0000 077D 
; 0000 077E     TWCR = (0<<TWEA) | (0<<TWSTA) | (0<<TWSTO) | (0<<TWEN) | (0<<TWIE);
	STS  116,R30
; 0000 077F }
	RET
; .FEND
;
;void io_init(void)
; 0000 0782 {
_io_init:
; .FSTART _io_init
; 0000 0783     /* CodeWizardAVR port defaults: tat ca input, tri-state. */
; 0000 0784     DDRA = (0<<DDA7) | (0<<DDA6) | (0<<DDA5) | (0<<DDA4) |
; 0000 0785            (0<<DDA3) | (0<<DDA2) | (0<<DDA1) | (0<<DDA0);
	LDI  R30,LOW(0)
	OUT  0x1A,R30
; 0000 0786     PORTA = (0<<PORTA7) | (0<<PORTA6) | (0<<PORTA5) | (0<<PORTA4) |
; 0000 0787             (0<<PORTA3) | (0<<PORTA2) | (0<<PORTA1) | (0<<PORTA0);
	OUT  0x1B,R30
; 0000 0788 
; 0000 0789     DDRB = (0<<DDB7) | (0<<DDB6) | (0<<DDB5) | (0<<DDB4) |
; 0000 078A            (0<<DDB3) | (0<<DDB2) | (0<<DDB1) | (0<<DDB0);
	OUT  0x17,R30
; 0000 078B     PORTB = (0<<PORTB7) | (0<<PORTB6) | (0<<PORTB5) | (0<<PORTB4) |
; 0000 078C             (0<<PORTB3) | (0<<PORTB2) | (0<<PORTB1) | (0<<PORTB0);
	OUT  0x18,R30
; 0000 078D 
; 0000 078E     DDRC = (0<<DDC7) | (0<<DDC6) | (0<<DDC5) | (0<<DDC4) |
; 0000 078F            (0<<DDC3) | (0<<DDC2) | (0<<DDC1) | (0<<DDC0);
	OUT  0x14,R30
; 0000 0790     PORTC = (0<<PORTC7) | (0<<PORTC6) | (0<<PORTC5) | (0<<PORTC4) |
; 0000 0791             (0<<PORTC3) | (0<<PORTC2) | (0<<PORTC1) | (0<<PORTC0);
	OUT  0x15,R30
; 0000 0792 
; 0000 0793     DDRD = (0<<DDD7) | (0<<DDD6) | (0<<DDD5) | (0<<DDD4) |
; 0000 0794            (0<<DDD3) | (0<<DDD2) | (0<<DDD1) | (0<<DDD0);
	OUT  0x11,R30
; 0000 0795     PORTD = (0<<PORTD7) | (0<<PORTD6) | (0<<PORTD5) | (0<<PORTD4) |
; 0000 0796             (0<<PORTD3) | (0<<PORTD2) | (0<<PORTD1) | (0<<PORTD0);
	OUT  0x12,R30
; 0000 0797 
; 0000 0798     DDRE = (0<<DDE7) | (0<<DDE6) | (0<<DDE5) | (0<<DDE4) |
; 0000 0799            (0<<DDE3) | (0<<DDE2) | (0<<DDE1) | (0<<DDE0);
	OUT  0x2,R30
; 0000 079A     PORTE = (0<<PORTE7) | (0<<PORTE6) | (0<<PORTE5) | (0<<PORTE4) |
; 0000 079B             (0<<PORTE3) | (0<<PORTE2) | (0<<PORTE1) | (0<<PORTE0);
	OUT  0x3,R30
; 0000 079C 
; 0000 079D     DDRF = (0<<DDF7) | (0<<DDF6) | (0<<DDF5) | (0<<DDF4) |
; 0000 079E            (0<<DDF3) | (0<<DDF2) | (0<<DDF1) | (0<<DDF0);
	STS  97,R30
; 0000 079F     PORTF = (0<<PORTF7) | (0<<PORTF6) | (0<<PORTF5) | (0<<PORTF4) |
; 0000 07A0             (0<<PORTF3) | (0<<PORTF2) | (0<<PORTF1) | (0<<PORTF0);
	STS  98,R30
; 0000 07A1 
; 0000 07A2     DDRG = (0<<DDG4) | (0<<DDG3) | (0<<DDG2) | (0<<DDG1) | (0<<DDG0);
	STS  100,R30
; 0000 07A3     PORTG = (0<<PORTG4) | (0<<PORTG3) | (0<<PORTG2) | (0<<PORTG1) | (0<<PORTG0);
	STS  101,R30
; 0000 07A4 
; 0000 07A5     /* Cau hinh rieng cho nut va keypad cua bai lich van nien. */
; 0000 07A6     DDRB = 0x00;
	OUT  0x17,R30
; 0000 07A7     PORTB = 0x0D;
	LDI  R30,LOW(13)
	OUT  0x18,R30
; 0000 07A8 
; 0000 07A9     DDRC = 0x40;
	LDI  R30,LOW(64)
	OUT  0x14,R30
; 0000 07AA     PORTC = 0x70;
	LDI  R30,LOW(112)
	OUT  0x15,R30
; 0000 07AB 
; 0000 07AC     DDRE = 0x02;
	LDI  R30,LOW(2)
	OUT  0x2,R30
; 0000 07AD     PORTE = 0x03;
	LDI  R30,LOW(3)
	OUT  0x3,R30
; 0000 07AE 
; 0000 07AF     DDRD = 0x81;
	LDI  R30,LOW(129)
	OUT  0x11,R30
; 0000 07B0     PORTD = 0x81;
_0x212000E:
	LDI  R30,LOW(129)
	OUT  0x12,R30
; 0000 07B1 }
	RET
; .FEND
;
;void glcd_start(void)
; 0000 07B4 {
_glcd_start:
; .FSTART _glcd_start
; 0000 07B5     GLCDINIT_t glcd_init_data;
; 0000 07B6 
; 0000 07B7     glcd_init_data.font = font5x7;
	SBIW R28,8
;	glcd_init_data -> Y+0
	LDI  R30,LOW(_font5x7*2)
	LDI  R31,HIGH(_font5x7*2)
	ST   Y,R30
	STD  Y+1,R31
; 0000 07B8     glcd_init_data.temp_coef = 80;
	LDD  R30,Y+6
	ANDI R30,LOW(0xFC)
	STD  Y+6,R30
; 0000 07B9     glcd_init_data.bias = 3;
	ANDI R30,LOW(0xE3)
	ORI  R30,LOW(0xC)
	STD  Y+6,R30
; 0000 07BA     glcd_init_data.vlcd = 55;
	LDD  R30,Y+7
	ANDI R30,LOW(0x80)
	ORI  R30,LOW(0x37)
	STD  Y+7,R30
; 0000 07BB     glcd_init(&glcd_init_data);
	MOVW R26,R28
	RCALL _glcd_init
; 0000 07BC     glcd_clear();
	CALL _glcd_clear
; 0000 07BD }
	JMP  _0x2120007
; .FEND
;
;void main(void)
; 0000 07C0 {
_main:
; .FSTART _main
; 0000 07C1     unsigned char key;
; 0000 07C2 
; 0000 07C3     io_init();
;	key -> R17
	RCALL _io_init
; 0000 07C4     codewizard_peripheral_init();
	RCALL _codewizard_peripheral_init
; 0000 07C5     glcd_start();
	RCALL _glcd_start
; 0000 07C6     timer1_init();
	RCALL _timer1_init
; 0000 07C7     timer0_init();
	RCALL _timer0_init
; 0000 07C8 
; 0000 07C9     #asm("sei")
	sei
; 0000 07CA 
; 0000 07CB     draw_screen();
	RCALL _draw_screen
; 0000 07CC 
; 0000 07CD     while (1) {
_0xB7:
; 0000 07CE         while (tick_1s) {
_0xBA:
	LDS  R30,_tick_1s
	LDS  R31,_tick_1s+1
	SBIW R30,0
	BREQ _0xBC
; 0000 07CF             #asm("cli")
	cli
; 0000 07D0             tick_1s--;
	LDI  R26,LOW(_tick_1s)
	LDI  R27,HIGH(_tick_1s)
	LD   R30,X+
	LD   R31,X+
	SBIW R30,1
	ST   -X,R31
	ST   -X,R30
; 0000 07D1             #asm("sei")
	sei
; 0000 07D2             if (!edit_mode) {
	TST  R13
	BRNE _0xBD
; 0000 07D3                 increase_one_second();
	CALL _increase_one_second
; 0000 07D4             }
; 0000 07D5             need_redraw = 1;
_0xBD:
	LDI  R30,LOW(1)
	STS  _need_redraw,R30
; 0000 07D6         }
	RJMP _0xBA
_0xBC:
; 0000 07D7 
; 0000 07D8         handle_bt1();
	RCALL _handle_bt1
; 0000 07D9         handle_bt2_edit();
	RCALL _handle_bt2_edit
; 0000 07DA         handle_bt3_zero();
	RCALL _handle_bt3_zero
; 0000 07DB 
; 0000 07DC         if (keypad_event) {
	LDS  R30,_keypad_event
	CPI  R30,0
	BREQ _0xBE
; 0000 07DD             #asm("cli")
	cli
; 0000 07DE             key = keypad_event_value;
	LDS  R17,_keypad_event_value
; 0000 07DF             keypad_event = 0;
	LDI  R30,LOW(0)
	STS  _keypad_event,R30
; 0000 07E0             #asm("sei")
	sei
; 0000 07E1             handle_digit(key);
	MOV  R26,R17
	RCALL _handle_digit
; 0000 07E2         }
; 0000 07E3 
; 0000 07E4         if (need_redraw) {
_0xBE:
	LDS  R30,_need_redraw
	CPI  R30,0
	BREQ _0xBF
; 0000 07E5             need_redraw = 0;
	LDI  R30,LOW(0)
	STS  _need_redraw,R30
; 0000 07E6             draw_screen();
	CALL _draw_screen
; 0000 07E7         }
; 0000 07E8     }
_0xBF:
	RJMP _0xB7
; 0000 07E9 }
_0xC0:
	RJMP _0xC0
; .FEND
	#ifndef __SLEEP_DEFINED__
	#define __SLEEP_DEFINED__
	.EQU __se_bit=0x20
	.EQU __sm_mask=0x1C
	.EQU __sm_powerdown=0x10
	.EQU __sm_powersave=0x18
	.EQU __sm_standby=0x14
	.EQU __sm_ext_standby=0x1C
	.EQU __sm_adc_noise_red=0x08
	.SET power_ctrl_reg=mcucr
	#endif

	.CSEG
_pcd8544_delay_G100:
; .FSTART _pcd8544_delay_G100
	RET
; .FEND
_pcd8544_wrbus_G100:
; .FSTART _pcd8544_wrbus_G100
	ST   -Y,R26
	ST   -Y,R17
	LDS  R30,101
	ANDI R30,0xEF
	STS  101,R30
	LDI  R17,LOW(8)
_0x2000004:
	RCALL _pcd8544_delay_G100
	LDD  R30,Y+1
	ANDI R30,LOW(0x80)
	BREQ _0x2000006
	LDS  R30,101
	ORI  R30,2
	RJMP _0x20000A0
_0x2000006:
	LDS  R30,101
	ANDI R30,0xFD
_0x20000A0:
	STS  101,R30
	LDD  R30,Y+1
	LSL  R30
	STD  Y+1,R30
	RCALL _pcd8544_delay_G100
	LDS  R30,101
	ORI  R30,4
	STS  101,R30
	RCALL _pcd8544_delay_G100
	LDS  R30,101
	ANDI R30,0xFB
	STS  101,R30
	SUBI R17,LOW(1)
	BRNE _0x2000004
	LDS  R30,101
	ORI  R30,0x10
	STS  101,R30
	LDD  R17,Y+0
	RJMP _0x212000C
; .FEND
_pcd8544_wrcmd:
; .FSTART _pcd8544_wrcmd
	ST   -Y,R26
	LDS  R30,101
	ANDI R30,0xFE
	STS  101,R30
	LD   R26,Y
	RCALL _pcd8544_wrbus_G100
	RJMP _0x212000B
; .FEND
_pcd8544_wrdata_G100:
; .FSTART _pcd8544_wrdata_G100
	ST   -Y,R26
	LDS  R30,101
	ORI  R30,1
	STS  101,R30
	LD   R26,Y
	RCALL _pcd8544_wrbus_G100
	RJMP _0x212000B
; .FEND
_pcd8544_setaddr_G100:
; .FSTART _pcd8544_setaddr_G100
	ST   -Y,R26
	ST   -Y,R17
	LDD  R30,Y+1
	LSR  R30
	LSR  R30
	LSR  R30
	MOV  R17,R30
	LDI  R30,LOW(84)
	MUL  R30,R17
	MOVW R30,R0
	MOVW R26,R30
	LDD  R30,Y+2
	LDI  R31,0
	ADD  R30,R26
	ADC  R31,R27
	STS  _gfx_addr_G100,R30
	STS  _gfx_addr_G100+1,R31
	MOV  R30,R17
	LDD  R17,Y+0
_0x212000D:
	ADIW R28,3
	RET
; .FEND
_pcd8544_gotoxy:
; .FSTART _pcd8544_gotoxy
	ST   -Y,R26
	LDD  R30,Y+1
	ORI  R30,0x80
	MOV  R26,R30
	RCALL _pcd8544_wrcmd
	LDD  R30,Y+1
	ST   -Y,R30
	LDD  R26,Y+1
	RCALL _pcd8544_setaddr_G100
	ORI  R30,0x40
	MOV  R26,R30
	RCALL _pcd8544_wrcmd
	RJMP _0x212000C
; .FEND
_pcd8544_rdbyte:
; .FSTART _pcd8544_rdbyte
	ST   -Y,R26
	LDD  R30,Y+1
	ST   -Y,R30
	LDD  R26,Y+1
	RCALL _pcd8544_gotoxy
	LDS  R30,_gfx_addr_G100
	LDS  R31,_gfx_addr_G100+1
	SUBI R30,LOW(-_gfx_buffer_G100)
	SBCI R31,HIGH(-_gfx_buffer_G100)
	LD   R30,Z
_0x212000C:
	ADIW R28,2
	RET
; .FEND
_pcd8544_wrbyte:
; .FSTART _pcd8544_wrbyte
	ST   -Y,R26
	CALL SUBOPT_0x12
	SBIW R30,1
	SUBI R30,LOW(-_gfx_buffer_G100)
	SBCI R31,HIGH(-_gfx_buffer_G100)
	LD   R26,Y
	STD  Z+0,R26
	RCALL _pcd8544_wrdata_G100
	RJMP _0x212000B
; .FEND
_glcd_init:
; .FSTART _glcd_init
	ST   -Y,R27
	ST   -Y,R26
	CALL __SAVELOCR4
	LDS  R30,100
	ORI  R30,0x10
	CALL SUBOPT_0x13
	ORI  R30,0x10
	STS  101,R30
	LDS  R30,100
	ORI  R30,4
	CALL SUBOPT_0x13
	ANDI R30,0xFB
	STS  101,R30
	LDS  R30,100
	ORI  R30,2
	STS  100,R30
	LDS  R30,100
	ORI  R30,1
	STS  100,R30
	LDS  R30,100
	ORI  R30,8
	CALL SUBOPT_0x13
	ANDI R30,0XF7
	STS  101,R30
	LDI  R26,LOW(10)
	LDI  R27,0
	CALL _delay_ms
	LDS  R30,101
	ORI  R30,8
	STS  101,R30
	LDD  R30,Y+4
	LDD  R31,Y+4+1
	SBIW R30,0
	BREQ _0x2000008
	LDD  R30,Z+6
	ANDI R30,LOW(0x3)
	MOV  R17,R30
	LDD  R30,Y+4
	LDD  R31,Y+4+1
	LDD  R30,Z+6
	LSR  R30
	LSR  R30
	ANDI R30,LOW(0x7)
	MOV  R16,R30
	LDD  R30,Y+4
	LDD  R31,Y+4+1
	LDD  R30,Z+7
	ANDI R30,0x7F
	MOV  R19,R30
	LDD  R26,Y+4
	LDD  R27,Y+4+1
	CALL __GETW1P
	__PUTW1MN _glcd_state,4
	ADIW R26,2
	CALL __GETW1P
	__PUTW1MN _glcd_state,25
	LDD  R26,Y+4
	LDD  R27,Y+4+1
	ADIW R26,4
	CALL __GETW1P
	RJMP _0x20000A1
_0x2000008:
	LDI  R17,LOW(0)
	LDI  R16,LOW(3)
	LDI  R19,LOW(50)
	LDI  R30,LOW(0)
	LDI  R31,HIGH(0)
	__PUTW1MN _glcd_state,4
	__PUTW1MN _glcd_state,25
_0x20000A1:
	__PUTW1MN _glcd_state,27
	LDI  R26,LOW(33)
	RCALL _pcd8544_wrcmd
	MOV  R30,R17
	ORI  R30,4
	MOV  R26,R30
	RCALL _pcd8544_wrcmd
	MOV  R30,R16
	ORI  R30,0x10
	MOV  R26,R30
	RCALL _pcd8544_wrcmd
	MOV  R30,R19
	ORI  R30,0x80
	MOV  R26,R30
	RCALL _pcd8544_wrcmd
	LDI  R26,LOW(32)
	RCALL _pcd8544_wrcmd
	LDI  R26,LOW(1)
	RCALL _glcd_display
	LDI  R30,LOW(1)
	STS  _glcd_state,R30
	LDI  R30,LOW(0)
	__PUTB1MN _glcd_state,1
	LDI  R30,LOW(1)
	__PUTB1MN _glcd_state,6
	__PUTB1MN _glcd_state,7
	__PUTB1MN _glcd_state,8
	LDI  R30,LOW(255)
	__PUTB1MN _glcd_state,9
	LDI  R30,LOW(1)
	__PUTB1MN _glcd_state,16
	__POINTW1MN _glcd_state,17
	ST   -Y,R31
	ST   -Y,R30
	LDI  R30,LOW(255)
	ST   -Y,R30
	LDI  R26,LOW(8)
	LDI  R27,0
	CALL _memset
	RCALL _glcd_clear
	LDI  R30,LOW(1)
	CALL __LOADLOCR4
	RJMP _0x212000A
; .FEND
_glcd_display:
; .FSTART _glcd_display
	ST   -Y,R26
	LD   R30,Y
	CPI  R30,0
	BREQ _0x200000A
	LDI  R30,LOW(12)
	RJMP _0x200000B
_0x200000A:
	LDI  R30,LOW(8)
_0x200000B:
	MOV  R26,R30
	RCALL _pcd8544_wrcmd
_0x212000B:
	ADIW R28,1
	RET
; .FEND
_glcd_clear:
; .FSTART _glcd_clear
	CALL __SAVELOCR4
	LDI  R19,0
	__GETB1MN _glcd_state,1
	CPI  R30,0
	BREQ _0x200000D
	LDI  R19,LOW(255)
_0x200000D:
	LDI  R30,LOW(0)
	ST   -Y,R30
	LDI  R26,LOW(0)
	RCALL _pcd8544_gotoxy
	__GETWRN 16,17,504
_0x200000E:
	MOVW R30,R16
	__SUBWRN 16,17,1
	SBIW R30,0
	BREQ _0x2000010
	MOV  R26,R19
	RCALL _pcd8544_wrbyte
	RJMP _0x200000E
_0x2000010:
	LDI  R30,LOW(0)
	ST   -Y,R30
	LDI  R26,LOW(0)
	RCALL _glcd_moveto
	CALL __LOADLOCR4
	JMP  _0x2120001
; .FEND
_glcd_putpixel:
; .FSTART _glcd_putpixel
	ST   -Y,R26
	ST   -Y,R17
	ST   -Y,R16
	LDD  R26,Y+4
	CPI  R26,LOW(0x54)
	BRSH _0x2000012
	LDD  R26,Y+3
	CPI  R26,LOW(0x30)
	BRLO _0x2000011
_0x2000012:
	LDD  R17,Y+1
	LDD  R16,Y+0
	JMP  _0x2120004
_0x2000011:
	LDD  R30,Y+4
	ST   -Y,R30
	LDD  R26,Y+4
	RCALL _pcd8544_rdbyte
	MOV  R17,R30
	LDD  R30,Y+3
	ANDI R30,LOW(0x7)
	LDI  R26,LOW(1)
	CALL __LSLB12
	MOV  R16,R30
	LDD  R30,Y+2
	CPI  R30,0
	BREQ _0x2000014
	OR   R17,R16
	RJMP _0x2000015
_0x2000014:
	MOV  R30,R16
	COM  R30
	AND  R17,R30
_0x2000015:
	MOV  R26,R17
	RCALL _pcd8544_wrbyte
	LDD  R17,Y+1
	LDD  R16,Y+0
	JMP  _0x2120004
; .FEND
_pcd8544_wrmasked_G100:
; .FSTART _pcd8544_wrmasked_G100
	ST   -Y,R26
	ST   -Y,R17
	LDD  R30,Y+5
	ST   -Y,R30
	LDD  R26,Y+5
	RCALL _pcd8544_rdbyte
	MOV  R17,R30
	LDD  R30,Y+1
	CPI  R30,LOW(0x7)
	BREQ _0x2000020
	CPI  R30,LOW(0x8)
	BRNE _0x2000021
_0x2000020:
	LDD  R30,Y+3
	ST   -Y,R30
	LDD  R26,Y+2
	CALL _glcd_mappixcolor1bit
	STD  Y+3,R30
	RJMP _0x2000022
_0x2000021:
	CPI  R30,LOW(0x3)
	BRNE _0x2000024
	LDD  R30,Y+3
	COM  R30
	STD  Y+3,R30
	RJMP _0x2000025
_0x2000024:
	CPI  R30,0
	BRNE _0x2000026
_0x2000025:
_0x2000022:
	LDD  R30,Y+2
	COM  R30
	AND  R17,R30
	RJMP _0x2000027
_0x2000026:
	CPI  R30,LOW(0x2)
	BRNE _0x2000028
_0x2000027:
	LDD  R30,Y+2
	LDD  R26,Y+3
	AND  R30,R26
	OR   R17,R30
	RJMP _0x200001E
_0x2000028:
	CPI  R30,LOW(0x1)
	BRNE _0x2000029
	LDD  R30,Y+2
	LDD  R26,Y+3
	AND  R30,R26
	EOR  R17,R30
	RJMP _0x200001E
_0x2000029:
	CPI  R30,LOW(0x4)
	BRNE _0x200001E
	LDD  R30,Y+2
	COM  R30
	LDD  R26,Y+3
	OR   R30,R26
	AND  R17,R30
_0x200001E:
	MOV  R26,R17
	RCALL _pcd8544_wrbyte
	LDD  R17,Y+0
_0x212000A:
	ADIW R28,6
	RET
; .FEND
_glcd_block:
; .FSTART _glcd_block
	ST   -Y,R26
	SBIW R28,3
	CALL __SAVELOCR6
	LDD  R26,Y+16
	CPI  R26,LOW(0x54)
	BRSH _0x200002C
	LDD  R26,Y+15
	CPI  R26,LOW(0x30)
	BRSH _0x200002C
	LDD  R26,Y+14
	CPI  R26,LOW(0x0)
	BREQ _0x200002C
	LDD  R26,Y+13
	CPI  R26,LOW(0x0)
	BRNE _0x200002B
_0x200002C:
	RJMP _0x2120009
_0x200002B:
	LDD  R30,Y+14
	STD  Y+8,R30
	LDD  R26,Y+16
	CLR  R27
	LDD  R30,Y+14
	LDI  R31,0
	ADD  R26,R30
	ADC  R27,R31
	CPI  R26,LOW(0x55)
	LDI  R30,HIGH(0x55)
	CPC  R27,R30
	BRLO _0x200002E
	LDD  R26,Y+16
	LDI  R30,LOW(84)
	SUB  R30,R26
	STD  Y+14,R30
_0x200002E:
	LDD  R18,Y+13
	LDD  R26,Y+15
	CLR  R27
	LDD  R30,Y+13
	LDI  R31,0
	ADD  R26,R30
	ADC  R27,R31
	SBIW R26,49
	BRLO _0x200002F
	LDD  R26,Y+15
	LDI  R30,LOW(48)
	SUB  R30,R26
	STD  Y+13,R30
_0x200002F:
	LDD  R26,Y+9
	CPI  R26,LOW(0x6)
	BREQ PC+2
	RJMP _0x2000030
	LDD  R30,Y+12
	CPI  R30,LOW(0x1)
	BRNE _0x2000034
	RJMP _0x2120009
_0x2000034:
	CPI  R30,LOW(0x3)
	BRNE _0x2000037
	__GETW1MN _glcd_state,27
	SBIW R30,0
	BRNE _0x2000036
	RJMP _0x2120009
_0x2000036:
_0x2000037:
	LDD  R16,Y+8
	LDD  R30,Y+13
	LSR  R30
	LSR  R30
	LSR  R30
	MOV  R19,R30
	MOV  R30,R18
	ANDI R30,LOW(0x7)
	BRNE _0x2000039
	LDD  R26,Y+13
	CP   R18,R26
	BREQ _0x2000038
_0x2000039:
	MOV  R26,R16
	CLR  R27
	MOV  R30,R19
	LDI  R31,0
	CALL __MULW12U
	LDD  R26,Y+10
	LDD  R27,Y+10+1
	CALL SUBOPT_0x14
	LSR  R18
	LSR  R18
	LSR  R18
	MOV  R21,R19
_0x200003B:
	PUSH R21
	SUBI R21,-1
	MOV  R30,R18
	POP  R26
	CP   R30,R26
	BRLO _0x200003D
	MOV  R17,R16
_0x200003E:
	MOV  R30,R17
	SUBI R17,1
	CPI  R30,0
	BREQ _0x2000040
	CALL SUBOPT_0x15
	RJMP _0x200003E
_0x2000040:
	RJMP _0x200003B
_0x200003D:
_0x2000038:
	LDD  R26,Y+14
	CP   R16,R26
	BREQ _0x2000041
	LDD  R30,Y+14
	LDD  R26,Y+10
	LDD  R27,Y+10+1
	LDI  R31,0
	CALL SUBOPT_0x14
	LDD  R30,Y+13
	ANDI R30,LOW(0x7)
	BREQ _0x2000042
	SUBI R19,-LOW(1)
_0x2000042:
	LDI  R18,LOW(0)
_0x2000043:
	PUSH R18
	SUBI R18,-1
	MOV  R30,R19
	POP  R26
	CP   R26,R30
	BRSH _0x2000045
	LDD  R17,Y+14
_0x2000046:
	PUSH R17
	SUBI R17,-1
	MOV  R30,R16
	POP  R26
	CP   R26,R30
	BRSH _0x2000048
	CALL SUBOPT_0x15
	RJMP _0x2000046
_0x2000048:
	LDD  R30,Y+14
	LDD  R26,Y+6
	LDD  R27,Y+6+1
	LDI  R31,0
	CALL SUBOPT_0x14
	RJMP _0x2000043
_0x2000045:
_0x2000041:
_0x2000030:
	LDD  R30,Y+15
	ANDI R30,LOW(0x7)
	MOV  R19,R30
_0x2000049:
	LDD  R30,Y+13
	CPI  R30,0
	BRNE PC+2
	RJMP _0x200004B
	LDD  R30,Y+10
	LDD  R31,Y+10+1
	STD  Y+6,R30
	STD  Y+6+1,R31
	LDI  R17,LOW(0)
	LDD  R16,Y+16
	CPI  R19,0
	BREQ PC+2
	RJMP _0x200004C
	LDD  R26,Y+13
	CPI  R26,LOW(0x8)
	BRSH PC+2
	RJMP _0x200004D
	LDD  R30,Y+9
	CPI  R30,0
	BREQ _0x2000052
	CPI  R30,LOW(0x3)
	BRNE _0x2000053
_0x2000052:
	RJMP _0x2000054
_0x2000053:
	CPI  R30,LOW(0x7)
	BRNE _0x2000055
_0x2000054:
	RJMP _0x2000056
_0x2000055:
	CPI  R30,LOW(0x8)
	BRNE _0x2000057
_0x2000056:
	RJMP _0x2000058
_0x2000057:
	CPI  R30,LOW(0x9)
	BRNE _0x2000059
_0x2000058:
	RJMP _0x200005A
_0x2000059:
	CPI  R30,LOW(0xA)
	BRNE _0x200005B
_0x200005A:
	ST   -Y,R16
	LDD  R26,Y+16
	RCALL _pcd8544_gotoxy
	RJMP _0x2000050
_0x200005B:
	CPI  R30,LOW(0x6)
	BRNE _0x2000050
	CALL SUBOPT_0x16
_0x2000050:
_0x200005D:
	PUSH R17
	SUBI R17,-1
	LDD  R30,Y+14
	POP  R26
	CP   R26,R30
	BRSH _0x200005F
	LDD  R26,Y+9
	CPI  R26,LOW(0x6)
	BRNE _0x2000060
	CALL SUBOPT_0x17
	ST   -Y,R31
	ST   -Y,R30
	CALL SUBOPT_0x12
	SBIW R30,1
	SUBI R30,LOW(-_gfx_buffer_G100)
	SBCI R31,HIGH(-_gfx_buffer_G100)
	LD   R26,Z
	CALL _glcd_writemem
	RJMP _0x2000061
_0x2000060:
	LDD  R30,Y+9
	CPI  R30,LOW(0x9)
	BRNE _0x2000065
	LDI  R21,LOW(0)
	RJMP _0x2000066
_0x2000065:
	CPI  R30,LOW(0xA)
	BRNE _0x2000064
	LDI  R21,LOW(255)
	RJMP _0x2000066
_0x2000064:
	CALL SUBOPT_0x17
	CALL SUBOPT_0x18
	MOV  R21,R30
	LDD  R30,Y+9
	CPI  R30,LOW(0x7)
	BREQ _0x200006D
	CPI  R30,LOW(0x8)
	BRNE _0x200006E
_0x200006D:
_0x2000066:
	CALL SUBOPT_0x19
	MOV  R21,R30
	RJMP _0x200006F
_0x200006E:
	CPI  R30,LOW(0x3)
	BRNE _0x2000071
	COM  R21
	RJMP _0x2000072
_0x2000071:
	CPI  R30,0
	BRNE _0x2000074
_0x2000072:
_0x200006F:
	MOV  R26,R21
	RCALL _pcd8544_wrdata_G100
	RJMP _0x200006B
_0x2000074:
	CALL SUBOPT_0x1A
	LDI  R30,LOW(255)
	ST   -Y,R30
	LDD  R26,Y+13
	RCALL _pcd8544_wrmasked_G100
_0x200006B:
_0x2000061:
	RJMP _0x200005D
_0x200005F:
	LDD  R30,Y+15
	SUBI R30,-LOW(8)
	STD  Y+15,R30
	LDD  R30,Y+13
	SUBI R30,LOW(8)
	STD  Y+13,R30
	RJMP _0x2000075
_0x200004D:
	LDD  R21,Y+13
	LDI  R18,LOW(0)
	LDI  R30,LOW(0)
	STD  Y+13,R30
	RJMP _0x2000076
_0x200004C:
	MOV  R30,R19
	LDD  R26,Y+13
	ADD  R26,R30
	CPI  R26,LOW(0x9)
	BRSH _0x2000077
	LDD  R18,Y+13
	LDI  R30,LOW(0)
	STD  Y+13,R30
	RJMP _0x2000078
_0x2000077:
	LDI  R30,LOW(8)
	SUB  R30,R19
	MOV  R18,R30
_0x2000078:
	ST   -Y,R19
	MOV  R26,R18
	CALL _glcd_getmask
	MOV  R20,R30
	LDD  R30,Y+9
	CPI  R30,LOW(0x6)
	BRNE _0x200007C
	CALL SUBOPT_0x16
_0x200007D:
	PUSH R17
	SUBI R17,-1
	LDD  R30,Y+14
	POP  R26
	CP   R26,R30
	BRSH _0x200007F
	CALL SUBOPT_0x12
	SBIW R30,1
	SUBI R30,LOW(-_gfx_buffer_G100)
	SBCI R31,HIGH(-_gfx_buffer_G100)
	LD   R30,Z
	AND  R30,R20
	MOV  R26,R30
	MOV  R30,R19
	CALL __LSRB12
	CALL SUBOPT_0x1B
	MOV  R30,R19
	MOV  R26,R20
	CALL __LSRB12
	COM  R30
	AND  R30,R1
	OR   R21,R30
	CALL SUBOPT_0x17
	ST   -Y,R31
	ST   -Y,R30
	MOV  R26,R21
	CALL _glcd_writemem
	RJMP _0x200007D
_0x200007F:
	RJMP _0x200007B
_0x200007C:
	CPI  R30,LOW(0x9)
	BRNE _0x2000080
	LDI  R21,LOW(0)
	RJMP _0x2000081
_0x2000080:
	CPI  R30,LOW(0xA)
	BRNE _0x2000087
	LDI  R21,LOW(255)
_0x2000081:
	CALL SUBOPT_0x19
	MOV  R26,R30
	MOV  R30,R19
	CALL __LSLB12
	MOV  R21,R30
_0x2000084:
	PUSH R17
	SUBI R17,-1
	LDD  R30,Y+14
	POP  R26
	CP   R26,R30
	BRSH _0x2000086
	CALL SUBOPT_0x1A
	ST   -Y,R20
	LDI  R26,LOW(0)
	RCALL _pcd8544_wrmasked_G100
	RJMP _0x2000084
_0x2000086:
	RJMP _0x200007B
_0x2000087:
_0x2000088:
	PUSH R17
	SUBI R17,-1
	LDD  R30,Y+14
	POP  R26
	CP   R26,R30
	BRSH _0x200008A
	CALL SUBOPT_0x1C
	MOV  R26,R30
	MOV  R30,R19
	CALL __LSLB12
	ST   -Y,R30
	ST   -Y,R20
	LDD  R26,Y+13
	RCALL _pcd8544_wrmasked_G100
	RJMP _0x2000088
_0x200008A:
_0x200007B:
	LDD  R30,Y+13
	CPI  R30,0
	BRNE _0x200008B
	RJMP _0x200004B
_0x200008B:
	LDD  R26,Y+13
	CPI  R26,LOW(0x8)
	BRSH _0x200008C
	LDD  R30,Y+13
	SUB  R30,R18
	MOV  R21,R30
	LDI  R30,LOW(0)
	RJMP _0x20000A2
_0x200008C:
	MOV  R21,R19
	LDD  R30,Y+13
	SUBI R30,LOW(8)
_0x20000A2:
	STD  Y+13,R30
	LDI  R17,LOW(0)
	LDD  R30,Y+15
	SUBI R30,-LOW(8)
	STD  Y+15,R30
	LDI  R30,LOW(8)
	SUB  R30,R19
	MOV  R18,R30
	LDD  R16,Y+16
	LDD  R30,Y+10
	LDD  R31,Y+10+1
	STD  Y+6,R30
	STD  Y+6+1,R31
_0x2000076:
	MOV  R30,R21
	LDI  R31,0
	SUBI R30,LOW(-__glcd_mask*2)
	SBCI R31,HIGH(-__glcd_mask*2)
	LPM  R20,Z
	LDD  R30,Y+9
	CPI  R30,LOW(0x6)
	BRNE _0x2000091
	CALL SUBOPT_0x16
_0x2000092:
	PUSH R17
	SUBI R17,-1
	LDD  R30,Y+14
	POP  R26
	CP   R26,R30
	BRSH _0x2000094
	CALL SUBOPT_0x12
	SBIW R30,1
	SUBI R30,LOW(-_gfx_buffer_G100)
	SBCI R31,HIGH(-_gfx_buffer_G100)
	LD   R30,Z
	AND  R30,R20
	MOV  R26,R30
	MOV  R30,R18
	CALL __LSLB12
	CALL SUBOPT_0x1B
	MOV  R30,R18
	MOV  R26,R20
	CALL __LSLB12
	COM  R30
	AND  R30,R1
	OR   R21,R30
	CALL SUBOPT_0x17
	ST   -Y,R31
	ST   -Y,R30
	MOV  R26,R21
	CALL _glcd_writemem
	RJMP _0x2000092
_0x2000094:
	RJMP _0x2000090
_0x2000091:
	CPI  R30,LOW(0x9)
	BRNE _0x2000095
	LDI  R21,LOW(0)
	RJMP _0x2000096
_0x2000095:
	CPI  R30,LOW(0xA)
	BRNE _0x200009C
	LDI  R21,LOW(255)
_0x2000096:
	CALL SUBOPT_0x19
	MOV  R26,R30
	MOV  R30,R18
	CALL __LSRB12
	MOV  R21,R30
_0x2000099:
	PUSH R17
	SUBI R17,-1
	LDD  R30,Y+14
	POP  R26
	CP   R26,R30
	BRSH _0x200009B
	CALL SUBOPT_0x1A
	ST   -Y,R20
	LDI  R26,LOW(0)
	RCALL _pcd8544_wrmasked_G100
	RJMP _0x2000099
_0x200009B:
	RJMP _0x2000090
_0x200009C:
_0x200009D:
	PUSH R17
	SUBI R17,-1
	LDD  R30,Y+14
	POP  R26
	CP   R26,R30
	BRSH _0x200009F
	CALL SUBOPT_0x1C
	MOV  R26,R30
	MOV  R30,R18
	CALL __LSRB12
	ST   -Y,R30
	ST   -Y,R20
	LDD  R26,Y+13
	RCALL _pcd8544_wrmasked_G100
	RJMP _0x200009D
_0x200009F:
_0x2000090:
_0x2000075:
	LDD  R30,Y+8
	LDD  R26,Y+10
	LDD  R27,Y+10+1
	LDI  R31,0
	ADD  R30,R26
	ADC  R31,R27
	STD  Y+10,R30
	STD  Y+10+1,R31
	RJMP _0x2000049
_0x200004B:
_0x2120009:
	CALL __LOADLOCR6
	ADIW R28,17
	RET
; .FEND

	.CSEG
_glcd_clipx:
; .FSTART _glcd_clipx
	CALL SUBOPT_0x1
	CALL __CPW02
	BRLT _0x2020003
	LDI  R30,LOW(0)
	LDI  R31,HIGH(0)
	JMP  _0x2120003
_0x2020003:
	LD   R26,Y
	LDD  R27,Y+1
	CPI  R26,LOW(0x54)
	LDI  R30,HIGH(0x54)
	CPC  R27,R30
	BRLT _0x2020004
	LDI  R30,LOW(83)
	LDI  R31,HIGH(83)
	JMP  _0x2120003
_0x2020004:
	LD   R30,Y
	LDD  R31,Y+1
	JMP  _0x2120003
; .FEND
_glcd_clipy:
; .FSTART _glcd_clipy
	CALL SUBOPT_0x1
	CALL __CPW02
	BRLT _0x2020005
	LDI  R30,LOW(0)
	LDI  R31,HIGH(0)
	JMP  _0x2120003
_0x2020005:
	LD   R26,Y
	LDD  R27,Y+1
	SBIW R26,48
	BRLT _0x2020006
	LDI  R30,LOW(47)
	LDI  R31,HIGH(47)
	JMP  _0x2120003
_0x2020006:
	LD   R30,Y
	LDD  R31,Y+1
	JMP  _0x2120003
; .FEND
_glcd_getcharw_G101:
; .FSTART _glcd_getcharw_G101
	ST   -Y,R27
	ST   -Y,R26
	SBIW R28,3
	CALL SUBOPT_0x1D
	MOVW R16,R30
	MOV  R0,R16
	OR   R0,R17
	BRNE _0x202000B
	LDI  R30,LOW(0)
	LDI  R31,HIGH(0)
	RJMP _0x2120008
_0x202000B:
	CALL SUBOPT_0x1E
	STD  Y+7,R0
	CALL SUBOPT_0x1E
	STD  Y+6,R0
	CALL SUBOPT_0x1E
	STD  Y+8,R0
	LDD  R30,Y+11
	LDD  R26,Y+8
	CP   R30,R26
	BRSH _0x202000C
	LDI  R30,LOW(0)
	LDI  R31,HIGH(0)
	RJMP _0x2120008
_0x202000C:
	MOVW R30,R16
	__ADDWRN 16,17,1
	LPM  R21,Z
	LDD  R26,Y+8
	CLR  R27
	CLR  R30
	ADD  R26,R21
	ADC  R27,R30
	LDD  R30,Y+11
	LDI  R31,0
	CP   R30,R26
	CPC  R31,R27
	BRLO _0x202000D
	LDI  R30,LOW(0)
	LDI  R31,HIGH(0)
	RJMP _0x2120008
_0x202000D:
	LDD  R30,Y+6
	LSR  R30
	LSR  R30
	LSR  R30
	MOV  R20,R30
	LDD  R30,Y+6
	ANDI R30,LOW(0x7)
	BREQ _0x202000E
	SUBI R20,-LOW(1)
_0x202000E:
	LDD  R30,Y+7
	CPI  R30,0
	BREQ _0x202000F
	LDD  R26,Y+9
	LDD  R27,Y+9+1
	ST   X,R30
	LDD  R26,Y+8
	LDD  R30,Y+11
	SUB  R30,R26
	LDI  R31,0
	MOVW R26,R30
	LDD  R30,Y+7
	LDI  R31,0
	CALL __MULW12U
	MOVW R26,R30
	MOV  R30,R20
	LDI  R31,0
	CALL __MULW12U
	ADD  R30,R16
	ADC  R31,R17
	RJMP _0x2120008
_0x202000F:
	MOVW R18,R16
	MOV  R30,R21
	LDI  R31,0
	__ADDWRR 16,17,30,31
_0x2020010:
	LDD  R26,Y+8
	SUBI R26,-LOW(1)
	STD  Y+8,R26
	SUBI R26,LOW(1)
	LDD  R30,Y+11
	CP   R26,R30
	BRSH _0x2020012
	MOVW R30,R18
	__ADDWRN 18,19,1
	LPM  R26,Z
	LDI  R27,0
	MOV  R30,R20
	LDI  R31,0
	CALL __MULW12U
	__ADDWRR 16,17,30,31
	RJMP _0x2020010
_0x2020012:
	MOVW R30,R18
	LPM  R30,Z
	LDD  R26,Y+9
	LDD  R27,Y+9+1
	ST   X,R30
	MOVW R30,R16
_0x2120008:
	CALL __LOADLOCR6
	ADIW R28,12
	RET
; .FEND
_glcd_new_line_G101:
; .FSTART _glcd_new_line_G101
	LDI  R30,LOW(0)
	__PUTB1MN _glcd_state,2
	__GETB2MN _glcd_state,3
	CLR  R27
	CALL SUBOPT_0x1F
	LDI  R31,0
	ADD  R26,R30
	ADC  R27,R31
	__GETB1MN _glcd_state,7
	LDI  R31,0
	ADD  R26,R30
	ADC  R27,R31
	RCALL _glcd_clipy
	__PUTB1MN _glcd_state,3
	RET
; .FEND
_glcd_putchar:
; .FSTART _glcd_putchar
	ST   -Y,R26
	SBIW R28,1
	CALL SUBOPT_0x1D
	SBIW R30,0
	BRNE PC+2
	RJMP _0x202001F
	LDD  R26,Y+7
	CPI  R26,LOW(0xA)
	BRNE _0x2020020
	RJMP _0x2020021
_0x2020020:
	LDD  R30,Y+7
	ST   -Y,R30
	MOVW R26,R28
	ADIW R26,7
	RCALL _glcd_getcharw_G101
	MOVW R20,R30
	SBIW R30,0
	BRNE _0x2020022
	RJMP _0x2120006
_0x2020022:
	__GETB1MN _glcd_state,6
	LDD  R26,Y+6
	ADD  R30,R26
	MOV  R19,R30
	__GETB2MN _glcd_state,2
	CLR  R27
	LDI  R31,0
	ADD  R30,R26
	ADC  R31,R27
	MOVW R16,R30
	__CPWRN 16,17,85
	BRLO _0x2020023
	MOV  R16,R19
	CLR  R17
	RCALL _glcd_new_line_G101
_0x2020023:
	__GETB1MN _glcd_state,2
	ST   -Y,R30
	__GETB1MN _glcd_state,3
	ST   -Y,R30
	LDD  R30,Y+8
	ST   -Y,R30
	CALL SUBOPT_0x1F
	ST   -Y,R30
	LDI  R30,LOW(1)
	ST   -Y,R30
	ST   -Y,R21
	ST   -Y,R20
	LDI  R26,LOW(7)
	RCALL _glcd_block
	__GETB1MN _glcd_state,2
	LDD  R26,Y+6
	ADD  R30,R26
	ST   -Y,R30
	__GETB1MN _glcd_state,3
	ST   -Y,R30
	__GETB1MN _glcd_state,6
	ST   -Y,R30
	CALL SUBOPT_0x1F
	CALL SUBOPT_0x20
	__GETB1MN _glcd_state,2
	ST   -Y,R30
	__GETB2MN _glcd_state,3
	CALL SUBOPT_0x1F
	ADD  R30,R26
	ST   -Y,R30
	ST   -Y,R19
	__GETB1MN _glcd_state,7
	CALL SUBOPT_0x20
	LDI  R30,LOW(84)
	LDI  R31,HIGH(84)
	CP   R30,R16
	CPC  R31,R17
	BRNE _0x2020024
_0x2020021:
	RCALL _glcd_new_line_G101
	RJMP _0x2120006
_0x2020024:
_0x202001F:
	__PUTBMRN _glcd_state,2,16
_0x2120006:
	CALL __LOADLOCR6
_0x2120007:
	ADIW R28,8
	RET
; .FEND
_glcd_outtextxy:
; .FSTART _glcd_outtextxy
	ST   -Y,R27
	ST   -Y,R26
	ST   -Y,R17
	LDD  R30,Y+4
	ST   -Y,R30
	LDD  R26,Y+4
	RCALL _glcd_moveto
_0x2020025:
	LDD  R26,Y+1
	LDD  R27,Y+1+1
	LD   R30,X+
	STD  Y+1,R26
	STD  Y+1+1,R27
	MOV  R17,R30
	CPI  R30,0
	BREQ _0x2020027
	MOV  R26,R17
	RCALL _glcd_putchar
	RJMP _0x2020025
_0x2020027:
	LDD  R17,Y+0
	JMP  _0x2120004
; .FEND
_glcd_moveto:
; .FSTART _glcd_moveto
	ST   -Y,R26
	LDD  R26,Y+1
	CLR  R27
	RCALL _glcd_clipx
	__PUTB1MN _glcd_state,2
	LD   R26,Y
	CLR  R27
	RCALL _glcd_clipy
	__PUTB1MN _glcd_state,3
	JMP  _0x2120003
; .FEND
	#ifndef __SLEEP_DEFINED__
	#define __SLEEP_DEFINED__
	.EQU __se_bit=0x20
	.EQU __sm_mask=0x1C
	.EQU __sm_powerdown=0x10
	.EQU __sm_powersave=0x18
	.EQU __sm_standby=0x14
	.EQU __sm_ext_standby=0x1C
	.EQU __sm_adc_noise_red=0x08
	.SET power_ctrl_reg=mcucr
	#endif

	.CSEG
_put_buff_G103:
; .FSTART _put_buff_G103
	ST   -Y,R27
	ST   -Y,R26
	ST   -Y,R17
	ST   -Y,R16
	LDD  R26,Y+2
	LDD  R27,Y+2+1
	ADIW R26,2
	CALL __GETW1P
	SBIW R30,0
	BREQ _0x2060010
	LDD  R26,Y+2
	LDD  R27,Y+2+1
	ADIW R26,4
	CALL __GETW1P
	MOVW R16,R30
	SBIW R30,0
	BREQ _0x2060012
	__CPWRN 16,17,2
	BRLO _0x2060013
	MOVW R30,R16
	SBIW R30,1
	MOVW R16,R30
	__PUTW1SNS 2,4
_0x2060012:
	LDD  R26,Y+2
	LDD  R27,Y+2+1
	ADIW R26,2
	CALL SUBOPT_0x0
	SBIW R30,1
	LDD  R26,Y+4
	STD  Z+0,R26
_0x2060013:
	LDD  R26,Y+2
	LDD  R27,Y+2+1
	CALL __GETW1P
	TST  R31
	BRMI _0x2060014
	CALL SUBOPT_0x0
_0x2060014:
	RJMP _0x2060015
_0x2060010:
	LDD  R26,Y+2
	LDD  R27,Y+2+1
	LDI  R30,LOW(65535)
	LDI  R31,HIGH(65535)
	ST   X+,R30
	ST   X,R31
_0x2060015:
	LDD  R17,Y+1
	LDD  R16,Y+0
	RJMP _0x2120004
; .FEND
__print_G103:
; .FSTART __print_G103
	ST   -Y,R27
	ST   -Y,R26
	SBIW R28,6
	CALL __SAVELOCR6
	LDI  R17,0
	LDD  R26,Y+12
	LDD  R27,Y+12+1
	LDI  R30,LOW(0)
	LDI  R31,HIGH(0)
	ST   X+,R30
	ST   X,R31
_0x2060016:
	LDD  R30,Y+18
	LDD  R31,Y+18+1
	ADIW R30,1
	STD  Y+18,R30
	STD  Y+18+1,R31
	SBIW R30,1
	LPM  R30,Z
	MOV  R18,R30
	CPI  R30,0
	BRNE PC+2
	RJMP _0x2060018
	MOV  R30,R17
	CPI  R30,0
	BRNE _0x206001C
	CPI  R18,37
	BRNE _0x206001D
	LDI  R17,LOW(1)
	RJMP _0x206001E
_0x206001D:
	CALL SUBOPT_0x21
_0x206001E:
	RJMP _0x206001B
_0x206001C:
	CPI  R30,LOW(0x1)
	BRNE _0x206001F
	CPI  R18,37
	BRNE _0x2060020
	CALL SUBOPT_0x21
	RJMP _0x20600CC
_0x2060020:
	LDI  R17,LOW(2)
	LDI  R20,LOW(0)
	LDI  R16,LOW(0)
	CPI  R18,45
	BRNE _0x2060021
	LDI  R16,LOW(1)
	RJMP _0x206001B
_0x2060021:
	CPI  R18,43
	BRNE _0x2060022
	LDI  R20,LOW(43)
	RJMP _0x206001B
_0x2060022:
	CPI  R18,32
	BRNE _0x2060023
	LDI  R20,LOW(32)
	RJMP _0x206001B
_0x2060023:
	RJMP _0x2060024
_0x206001F:
	CPI  R30,LOW(0x2)
	BRNE _0x2060025
_0x2060024:
	LDI  R21,LOW(0)
	LDI  R17,LOW(3)
	CPI  R18,48
	BRNE _0x2060026
	ORI  R16,LOW(128)
	RJMP _0x206001B
_0x2060026:
	RJMP _0x2060027
_0x2060025:
	CPI  R30,LOW(0x3)
	BREQ PC+2
	RJMP _0x206001B
_0x2060027:
	CPI  R18,48
	BRLO _0x206002A
	CPI  R18,58
	BRLO _0x206002B
_0x206002A:
	RJMP _0x2060029
_0x206002B:
	LDI  R26,LOW(10)
	MUL  R21,R26
	MOV  R21,R0
	MOV  R30,R18
	SUBI R30,LOW(48)
	ADD  R21,R30
	RJMP _0x206001B
_0x2060029:
	MOV  R30,R18
	CPI  R30,LOW(0x63)
	BRNE _0x206002F
	CALL SUBOPT_0x22
	LDD  R30,Y+16
	LDD  R31,Y+16+1
	LDD  R26,Z+4
	ST   -Y,R26
	CALL SUBOPT_0x23
	RJMP _0x2060030
_0x206002F:
	CPI  R30,LOW(0x73)
	BRNE _0x2060032
	CALL SUBOPT_0x22
	CALL SUBOPT_0x24
	CALL _strlen
	MOV  R17,R30
	RJMP _0x2060033
_0x2060032:
	CPI  R30,LOW(0x70)
	BRNE _0x2060035
	CALL SUBOPT_0x22
	CALL SUBOPT_0x24
	CALL _strlenf
	MOV  R17,R30
	ORI  R16,LOW(8)
_0x2060033:
	ORI  R16,LOW(2)
	ANDI R16,LOW(127)
	LDI  R19,LOW(0)
	RJMP _0x2060036
_0x2060035:
	CPI  R30,LOW(0x64)
	BREQ _0x2060039
	CPI  R30,LOW(0x69)
	BRNE _0x206003A
_0x2060039:
	ORI  R16,LOW(4)
	RJMP _0x206003B
_0x206003A:
	CPI  R30,LOW(0x75)
	BRNE _0x206003C
_0x206003B:
	LDI  R30,LOW(_tbl10_G103*2)
	LDI  R31,HIGH(_tbl10_G103*2)
	STD  Y+6,R30
	STD  Y+6+1,R31
	LDI  R17,LOW(5)
	RJMP _0x206003D
_0x206003C:
	CPI  R30,LOW(0x58)
	BRNE _0x206003F
	ORI  R16,LOW(8)
	RJMP _0x2060040
_0x206003F:
	CPI  R30,LOW(0x78)
	BREQ PC+2
	RJMP _0x2060071
_0x2060040:
	LDI  R30,LOW(_tbl16_G103*2)
	LDI  R31,HIGH(_tbl16_G103*2)
	STD  Y+6,R30
	STD  Y+6+1,R31
	LDI  R17,LOW(4)
_0x206003D:
	SBRS R16,2
	RJMP _0x2060042
	CALL SUBOPT_0x22
	CALL SUBOPT_0x25
	LDD  R26,Y+11
	TST  R26
	BRPL _0x2060043
	LDD  R30,Y+10
	LDD  R31,Y+10+1
	CALL __ANEGW1
	STD  Y+10,R30
	STD  Y+10+1,R31
	LDI  R20,LOW(45)
_0x2060043:
	CPI  R20,0
	BREQ _0x2060044
	SUBI R17,-LOW(1)
	RJMP _0x2060045
_0x2060044:
	ANDI R16,LOW(251)
_0x2060045:
	RJMP _0x2060046
_0x2060042:
	CALL SUBOPT_0x22
	CALL SUBOPT_0x25
_0x2060046:
_0x2060036:
	SBRC R16,0
	RJMP _0x2060047
_0x2060048:
	CP   R17,R21
	BRSH _0x206004A
	SBRS R16,7
	RJMP _0x206004B
	SBRS R16,2
	RJMP _0x206004C
	ANDI R16,LOW(251)
	MOV  R18,R20
	SUBI R17,LOW(1)
	RJMP _0x206004D
_0x206004C:
	LDI  R18,LOW(48)
_0x206004D:
	RJMP _0x206004E
_0x206004B:
	LDI  R18,LOW(32)
_0x206004E:
	CALL SUBOPT_0x21
	SUBI R21,LOW(1)
	RJMP _0x2060048
_0x206004A:
_0x2060047:
	MOV  R19,R17
	SBRS R16,1
	RJMP _0x206004F
_0x2060050:
	CPI  R19,0
	BREQ _0x2060052
	SBRS R16,3
	RJMP _0x2060053
	LDD  R30,Y+6
	LDD  R31,Y+6+1
	LPM  R18,Z+
	STD  Y+6,R30
	STD  Y+6+1,R31
	RJMP _0x2060054
_0x2060053:
	LDD  R26,Y+6
	LDD  R27,Y+6+1
	LD   R18,X+
	STD  Y+6,R26
	STD  Y+6+1,R27
_0x2060054:
	CALL SUBOPT_0x21
	CPI  R21,0
	BREQ _0x2060055
	SUBI R21,LOW(1)
_0x2060055:
	SUBI R19,LOW(1)
	RJMP _0x2060050
_0x2060052:
	RJMP _0x2060056
_0x206004F:
_0x2060058:
	LDI  R18,LOW(48)
	LDD  R30,Y+6
	LDD  R31,Y+6+1
	CALL __GETW1PF
	STD  Y+8,R30
	STD  Y+8+1,R31
	LDD  R30,Y+6
	LDD  R31,Y+6+1
	ADIW R30,2
	STD  Y+6,R30
	STD  Y+6+1,R31
_0x206005A:
	LDD  R30,Y+8
	LDD  R31,Y+8+1
	LDD  R26,Y+10
	LDD  R27,Y+10+1
	CP   R26,R30
	CPC  R27,R31
	BRLO _0x206005C
	SUBI R18,-LOW(1)
	LDD  R26,Y+8
	LDD  R27,Y+8+1
	LDD  R30,Y+10
	LDD  R31,Y+10+1
	SUB  R30,R26
	SBC  R31,R27
	STD  Y+10,R30
	STD  Y+10+1,R31
	RJMP _0x206005A
_0x206005C:
	CPI  R18,58
	BRLO _0x206005D
	SBRS R16,3
	RJMP _0x206005E
	SUBI R18,-LOW(7)
	RJMP _0x206005F
_0x206005E:
	SUBI R18,-LOW(39)
_0x206005F:
_0x206005D:
	SBRC R16,4
	RJMP _0x2060061
	CPI  R18,49
	BRSH _0x2060063
	LDD  R26,Y+8
	LDD  R27,Y+8+1
	SBIW R26,1
	BRNE _0x2060062
_0x2060063:
	RJMP _0x20600CD
_0x2060062:
	CP   R21,R19
	BRLO _0x2060067
	SBRS R16,0
	RJMP _0x2060068
_0x2060067:
	RJMP _0x2060066
_0x2060068:
	LDI  R18,LOW(32)
	SBRS R16,7
	RJMP _0x2060069
	LDI  R18,LOW(48)
_0x20600CD:
	ORI  R16,LOW(16)
	SBRS R16,2
	RJMP _0x206006A
	ANDI R16,LOW(251)
	ST   -Y,R20
	CALL SUBOPT_0x23
	CPI  R21,0
	BREQ _0x206006B
	SUBI R21,LOW(1)
_0x206006B:
_0x206006A:
_0x2060069:
_0x2060061:
	CALL SUBOPT_0x21
	CPI  R21,0
	BREQ _0x206006C
	SUBI R21,LOW(1)
_0x206006C:
_0x2060066:
	SUBI R19,LOW(1)
	LDD  R26,Y+8
	LDD  R27,Y+8+1
	SBIW R26,2
	BRLO _0x2060059
	RJMP _0x2060058
_0x2060059:
_0x2060056:
	SBRS R16,0
	RJMP _0x206006D
_0x206006E:
	CPI  R21,0
	BREQ _0x2060070
	SUBI R21,LOW(1)
	LDI  R30,LOW(32)
	ST   -Y,R30
	CALL SUBOPT_0x23
	RJMP _0x206006E
_0x2060070:
_0x206006D:
_0x2060071:
_0x2060030:
_0x20600CC:
	LDI  R17,LOW(0)
_0x206001B:
	RJMP _0x2060016
_0x2060018:
	LDD  R26,Y+12
	LDD  R27,Y+12+1
	CALL __GETW1P
	CALL __LOADLOCR6
	ADIW R28,20
	RET
; .FEND
_sprintf:
; .FSTART _sprintf
	PUSH R15
	MOV  R15,R24
	SBIW R28,6
	CALL __SAVELOCR4
	CALL SUBOPT_0x26
	SBIW R30,0
	BRNE _0x2060072
	LDI  R30,LOW(65535)
	LDI  R31,HIGH(65535)
	RJMP _0x2120005
_0x2060072:
	MOVW R26,R28
	ADIW R26,6
	CALL __ADDW2R15
	MOVW R16,R26
	CALL SUBOPT_0x26
	STD  Y+6,R30
	STD  Y+6+1,R31
	LDI  R30,LOW(0)
	STD  Y+8,R30
	STD  Y+8+1,R30
	MOVW R26,R28
	ADIW R26,10
	CALL __ADDW2R15
	CALL __GETW1P
	ST   -Y,R31
	ST   -Y,R30
	ST   -Y,R17
	ST   -Y,R16
	LDI  R30,LOW(_put_buff_G103)
	LDI  R31,HIGH(_put_buff_G103)
	ST   -Y,R31
	ST   -Y,R30
	MOVW R26,R28
	ADIW R26,10
	RCALL __print_G103
	MOVW R18,R30
	LDD  R26,Y+6
	LDD  R27,Y+6+1
	LDI  R30,LOW(0)
	ST   X,R30
	MOVW R30,R18
_0x2120005:
	CALL __LOADLOCR4
	ADIW R28,10
	POP  R15
	RET
; .FEND

	.CSEG

	.CSEG
_memset:
; .FSTART _memset
	ST   -Y,R27
	ST   -Y,R26
    ldd  r27,y+1
    ld   r26,y
    adiw r26,0
    breq memset1
    ldd  r31,y+4
    ldd  r30,y+3
    ldd  r22,y+2
memset0:
    st   z+,r22
    sbiw r26,1
    brne memset0
memset1:
    ldd  r30,y+3
    ldd  r31,y+4
_0x2120004:
	ADIW R28,5
	RET
; .FEND
_strlen:
; .FSTART _strlen
	ST   -Y,R27
	ST   -Y,R26
    ld   r26,y+
    ld   r27,y+
    clr  r30
    clr  r31
strlen0:
    ld   r22,x+
    tst  r22
    breq strlen1
    adiw r30,1
    rjmp strlen0
strlen1:
    ret
; .FEND
_strlenf:
; .FSTART _strlenf
	ST   -Y,R27
	ST   -Y,R26
    clr  r26
    clr  r27
    ld   r30,y+
    ld   r31,y+
strlenf0:
	lpm  r0,z+
    tst  r0
    breq strlenf1
    adiw r26,1
    rjmp strlenf0
strlenf1:
    movw r30,r26
    ret
; .FEND

	.CSEG
_glcd_getmask:
; .FSTART _glcd_getmask
	ST   -Y,R26
	LD   R30,Y
	LDI  R31,0
	SUBI R30,LOW(-__glcd_mask*2)
	SBCI R31,HIGH(-__glcd_mask*2)
	LPM  R26,Z
	LDD  R30,Y+1
	CALL __LSLB12
_0x2120003:
	ADIW R28,2
	RET
; .FEND
_glcd_mappixcolor1bit:
; .FSTART _glcd_mappixcolor1bit
	ST   -Y,R26
	ST   -Y,R17
	LDD  R30,Y+1
	CPI  R30,LOW(0x7)
	BREQ _0x20C0007
	CPI  R30,LOW(0xA)
	BRNE _0x20C0008
_0x20C0007:
	LDS  R17,_glcd_state
	RJMP _0x20C0009
_0x20C0008:
	CPI  R30,LOW(0x9)
	BRNE _0x20C000B
	__GETBRMN 17,_glcd_state,1
	RJMP _0x20C0009
_0x20C000B:
	CPI  R30,LOW(0x8)
	BRNE _0x20C0005
	__GETBRMN 17,_glcd_state,16
_0x20C0009:
	__GETB1MN _glcd_state,1
	CPI  R30,0
	BREQ _0x20C000E
	CPI  R17,0
	BREQ _0x20C000F
	LDI  R30,LOW(255)
	LDD  R17,Y+0
	RJMP _0x2120002
_0x20C000F:
	LDD  R30,Y+2
	COM  R30
	LDD  R17,Y+0
	RJMP _0x2120002
_0x20C000E:
	CPI  R17,0
	BRNE _0x20C0011
	LDI  R30,LOW(0)
	LDD  R17,Y+0
	RJMP _0x2120002
_0x20C0011:
_0x20C0005:
	LDD  R30,Y+2
	LDD  R17,Y+0
	RJMP _0x2120002
; .FEND
_glcd_readmem:
; .FSTART _glcd_readmem
	ST   -Y,R27
	ST   -Y,R26
	LDD  R30,Y+2
	CPI  R30,LOW(0x1)
	BRNE _0x20C0015
	LD   R30,Y
	LDD  R31,Y+1
	LPM  R30,Z
	RJMP _0x2120002
_0x20C0015:
	CPI  R30,LOW(0x2)
	BRNE _0x20C0016
	LD   R26,Y
	LDD  R27,Y+1
	CALL __EEPROMRDB
	RJMP _0x2120002
_0x20C0016:
	CPI  R30,LOW(0x3)
	BRNE _0x20C0018
	LD   R26,Y
	LDD  R27,Y+1
	__CALL1MN _glcd_state,25
	RJMP _0x2120002
_0x20C0018:
	LD   R26,Y
	LDD  R27,Y+1
	LD   R30,X
_0x2120002:
	ADIW R28,3
	RET
; .FEND
_glcd_writemem:
; .FSTART _glcd_writemem
	ST   -Y,R26
	LDD  R30,Y+3
	CPI  R30,0
	BRNE _0x20C001C
	LD   R30,Y
	LDD  R26,Y+1
	LDD  R27,Y+1+1
	ST   X,R30
	RJMP _0x20C001B
_0x20C001C:
	CPI  R30,LOW(0x2)
	BRNE _0x20C001D
	LD   R30,Y
	LDD  R26,Y+1
	LDD  R27,Y+1+1
	CALL __EEPROMWRB
	RJMP _0x20C001B
_0x20C001D:
	CPI  R30,LOW(0x3)
	BRNE _0x20C001B
	LDD  R30,Y+1
	LDD  R31,Y+1+1
	ST   -Y,R31
	ST   -Y,R30
	LDD  R26,Y+2
	__CALL1MN _glcd_state,27
_0x20C001B:
_0x2120001:
	ADIW R28,4
	RET
; .FEND

	.CSEG

	.CSEG

	.DSEG

	.CSEG

	.DSEG
_glcd_state:
	.BYTE 0x1D
_tick_1s:
	.BYTE 0x2
_bt1_event:
	.BYTE 0x1
_bt2_short_event:
	.BYTE 0x1
_bt2_hold_event:
	.BYTE 0x1
_bt3_event:
	.BYTE 0x1
_keypad_event:
	.BYTE 0x1
_keypad_event_value:
	.BYTE 0x1
_edit_digits:
	.BYTE 0x4
_edit_digit_count:
	.BYTE 0x1
_need_redraw:
	.BYTE 0x1
_full_redraw:
	.BYTE 0x1
_keypad_value:
	.BYTE 0x9
_bt1_stable_S0000011000:
	.BYTE 0x1
_bt1_last_S0000011000:
	.BYTE 0x1
_bt1_count_S0000011000:
	.BYTE 0x1
_bt2_stable_S0000011000:
	.BYTE 0x1
_bt2_last_S0000011000:
	.BYTE 0x1
_bt2_count_S0000011000:
	.BYTE 0x1
_bt3_stable_S0000011000:
	.BYTE 0x1
_bt3_last_S0000011000:
	.BYTE 0x1
_bt3_count_S0000011000:
	.BYTE 0x1
_key_stable_S0000011000:
	.BYTE 0x1
_key_last_S0000011000:
	.BYTE 0x1
_key_count_S0000011000:
	.BYTE 0x1
_bt2_hold_ms_S0000011000:
	.BYTE 0x2
_bt2_hold_sent_S0000011000:
	.BYTE 0x1
_gfx_addr_G100:
	.BYTE 0x2
_gfx_buffer_G100:
	.BYTE 0x1F8
__seed_G108:
	.BYTE 0x4

	.CSEG
;OPTIMIZER ADDED SUBROUTINE, CALLED 7 TIMES, CODE SIZE REDUCTION:15 WORDS
SUBOPT_0x0:
	LD   R30,X+
	LD   R31,X+
	ADIW R30,1
	ST   -X,R31
	ST   -X,R30
	RET

;OPTIMIZER ADDED SUBROUTINE, CALLED 4 TIMES, CODE SIZE REDUCTION:3 WORDS
SUBOPT_0x1:
	ST   -Y,R27
	ST   -Y,R26
	LD   R26,Y
	LDD  R27,Y+1
	RET

;OPTIMIZER ADDED SUBROUTINE, CALLED 4 TIMES, CODE SIZE REDUCTION:3 WORDS
SUBOPT_0x2:
	__GETD2S 4
	RET

;OPTIMIZER ADDED SUBROUTINE, CALLED 3 TIMES, CODE SIZE REDUCTION:5 WORDS
SUBOPT_0x3:
	CALL __ADDD12
	__PUTD1S 4
	RET

;OPTIMIZER ADDED SUBROUTINE, CALLED 2 TIMES, CODE SIZE REDUCTION:1 WORDS
SUBOPT_0x4:
	RCALL SUBOPT_0x2
	CALL __CWD1
	RJMP SUBOPT_0x3

;OPTIMIZER ADDED SUBROUTINE, CALLED 5 TIMES, CODE SIZE REDUCTION:17 WORDS
SUBOPT_0x5:
	__MULBNWRU 16,17,9
	SUBI R30,LOW(-_lunar_table*2)
	SBCI R31,HIGH(-_lunar_table*2)
	RET

;OPTIMIZER ADDED SUBROUTINE, CALLED 2 TIMES, CODE SIZE REDUCTION:1 WORDS
SUBOPT_0x6:
	__GETD2S 6
	CALL __CPD21
	RET

;OPTIMIZER ADDED SUBROUTINE, CALLED 3 TIMES, CODE SIZE REDUCTION:1 WORDS
SUBOPT_0x7:
	LDI  R30,LOW(0)
	ST   -Y,R30
	ST   -Y,R30
	RET

;OPTIMIZER ADDED SUBROUTINE, CALLED 4 TIMES, CODE SIZE REDUCTION:6 WORDS
SUBOPT_0x8:
	CALL _clear_rect_pixels
	LDI  R30,LOW(1)
	STS  _glcd_state,R30
	RET

;OPTIMIZER ADDED SUBROUTINE, CALLED 3 TIMES, CODE SIZE REDUCTION:1 WORDS
SUBOPT_0x9:
	MOVW R30,R28
	ADIW R30,13
	ST   -Y,R31
	ST   -Y,R30
	RET

;OPTIMIZER ADDED SUBROUTINE, CALLED 7 TIMES, CODE SIZE REDUCTION:15 WORDS
SUBOPT_0xA:
	CLR  R31
	CLR  R22
	CLR  R23
	CALL __PUTPARD1
	RET

;OPTIMIZER ADDED SUBROUTINE, CALLED 3 TIMES, CODE SIZE REDUCTION:5 WORDS
SUBOPT_0xB:
	LDI  R24,12
	CALL _sprintf
	ADIW R28,16
	LDI  R30,LOW(0)
	ST   -Y,R30
	RET

;OPTIMIZER ADDED SUBROUTINE, CALLED 2 TIMES, CODE SIZE REDUCTION:2 WORDS
SUBOPT_0xC:
	ST   -Y,R30
	MOVW R26,R28
	ADIW R26,15
	CALL _glcd_outtextxy
	LDI  R30,LOW(0)
	ST   -Y,R30
	RET

;OPTIMIZER ADDED SUBROUTINE, CALLED 2 TIMES, CODE SIZE REDUCTION:1 WORDS
SUBOPT_0xD:
	CLR  R22
	CLR  R23
	CALL __PUTPARD1
	RJMP SUBOPT_0xB

;OPTIMIZER ADDED SUBROUTINE, CALLED 3 TIMES, CODE SIZE REDUCTION:1 WORDS
SUBOPT_0xE:
	LDI  R30,LOW(0)
	ST   -Y,R30
	LDI  R30,LOW(30)
	ST   -Y,R30
	RET

;OPTIMIZER ADDED SUBROUTINE, CALLED 7 TIMES, CODE SIZE REDUCTION:9 WORDS
SUBOPT_0xF:
	LDI  R30,LOW(0)
	ST   -Y,R30
	LDI  R30,LOW(40)
	ST   -Y,R30
	RET

;OPTIMIZER ADDED SUBROUTINE, CALLED 3 TIMES, CODE SIZE REDUCTION:3 WORDS
SUBOPT_0x10:
	CALL _keypad_rows_idle
	LDI  R26,LOW(3)
	MUL  R17,R26
	MOVW R30,R0
	RET

;OPTIMIZER ADDED SUBROUTINE, CALLED 3 TIMES, CODE SIZE REDUCTION:1 WORDS
SUBOPT_0x11:
	LDI  R30,LOW(0)
	CALL __EQB12
	ST   -Y,R30
	RET

;OPTIMIZER ADDED SUBROUTINE, CALLED 4 TIMES, CODE SIZE REDUCTION:3 WORDS
SUBOPT_0x12:
	LDI  R26,LOW(_gfx_addr_G100)
	LDI  R27,HIGH(_gfx_addr_G100)
	RJMP SUBOPT_0x0

;OPTIMIZER ADDED SUBROUTINE, CALLED 3 TIMES, CODE SIZE REDUCTION:1 WORDS
SUBOPT_0x13:
	STS  100,R30
	LDS  R30,101
	RET

;OPTIMIZER ADDED SUBROUTINE, CALLED 3 TIMES, CODE SIZE REDUCTION:1 WORDS
SUBOPT_0x14:
	ADD  R30,R26
	ADC  R31,R27
	STD  Y+6,R30
	STD  Y+6+1,R31
	RET

;OPTIMIZER ADDED SUBROUTINE, CALLED 2 TIMES, CODE SIZE REDUCTION:8 WORDS
SUBOPT_0x15:
	LDD  R30,Y+12
	ST   -Y,R30
	LDD  R30,Y+7
	LDD  R31,Y+7+1
	ADIW R30,1
	STD  Y+7,R30
	STD  Y+7+1,R31
	SBIW R30,1
	ST   -Y,R31
	ST   -Y,R30
	LDI  R26,LOW(0)
	JMP  _glcd_writemem

;OPTIMIZER ADDED SUBROUTINE, CALLED 3 TIMES, CODE SIZE REDUCTION:1 WORDS
SUBOPT_0x16:
	ST   -Y,R16
	LDD  R26,Y+16
	JMP  _pcd8544_setaddr_G100

;OPTIMIZER ADDED SUBROUTINE, CALLED 4 TIMES, CODE SIZE REDUCTION:15 WORDS
SUBOPT_0x17:
	LDD  R30,Y+12
	ST   -Y,R30
	LDD  R30,Y+7
	LDD  R31,Y+7+1
	ADIW R30,1
	STD  Y+7,R30
	STD  Y+7+1,R31
	SBIW R30,1
	RET

;OPTIMIZER ADDED SUBROUTINE, CALLED 3 TIMES, CODE SIZE REDUCTION:5 WORDS
SUBOPT_0x18:
	CLR  R22
	CLR  R23
	MOVW R26,R30
	MOVW R24,R22
	JMP  _glcd_readmem

;OPTIMIZER ADDED SUBROUTINE, CALLED 3 TIMES, CODE SIZE REDUCTION:1 WORDS
SUBOPT_0x19:
	ST   -Y,R21
	LDD  R26,Y+10
	JMP  _glcd_mappixcolor1bit

;OPTIMIZER ADDED SUBROUTINE, CALLED 3 TIMES, CODE SIZE REDUCTION:3 WORDS
SUBOPT_0x1A:
	ST   -Y,R16
	INC  R16
	LDD  R30,Y+16
	ST   -Y,R30
	ST   -Y,R21
	RET

;OPTIMIZER ADDED SUBROUTINE, CALLED 2 TIMES, CODE SIZE REDUCTION:5 WORDS
SUBOPT_0x1B:
	MOV  R21,R30
	LDD  R30,Y+12
	ST   -Y,R30
	LDD  R26,Y+7
	LDD  R27,Y+7+1
	CLR  R24
	CLR  R25
	CALL _glcd_readmem
	MOV  R1,R30
	RET

;OPTIMIZER ADDED SUBROUTINE, CALLED 2 TIMES, CODE SIZE REDUCTION:9 WORDS
SUBOPT_0x1C:
	ST   -Y,R16
	INC  R16
	LDD  R30,Y+16
	ST   -Y,R30
	LDD  R30,Y+14
	ST   -Y,R30
	LDD  R30,Y+9
	LDD  R31,Y+9+1
	ADIW R30,1
	STD  Y+9,R30
	STD  Y+9+1,R31
	SBIW R30,1
	RJMP SUBOPT_0x18

;OPTIMIZER ADDED SUBROUTINE, CALLED 2 TIMES, CODE SIZE REDUCTION:1 WORDS
SUBOPT_0x1D:
	CALL __SAVELOCR6
	__GETW1MN _glcd_state,4
	RET

;OPTIMIZER ADDED SUBROUTINE, CALLED 3 TIMES, CODE SIZE REDUCTION:1 WORDS
SUBOPT_0x1E:
	MOVW R30,R16
	__ADDWRN 16,17,1
	LPM  R0,Z
	RET

;OPTIMIZER ADDED SUBROUTINE, CALLED 4 TIMES, CODE SIZE REDUCTION:9 WORDS
SUBOPT_0x1F:
	__GETW1MN _glcd_state,4
	ADIW R30,1
	LPM  R30,Z
	RET

;OPTIMIZER ADDED SUBROUTINE, CALLED 2 TIMES, CODE SIZE REDUCTION:5 WORDS
SUBOPT_0x20:
	ST   -Y,R30
	LDI  R30,LOW(0)
	ST   -Y,R30
	LDI  R30,LOW(0)
	LDI  R31,HIGH(0)
	ST   -Y,R31
	ST   -Y,R30
	LDI  R26,LOW(9)
	JMP  _glcd_block

;OPTIMIZER ADDED SUBROUTINE, CALLED 5 TIMES, CODE SIZE REDUCTION:13 WORDS
SUBOPT_0x21:
	ST   -Y,R18
	LDD  R26,Y+13
	LDD  R27,Y+13+1
	LDD  R30,Y+15
	LDD  R31,Y+15+1
	ICALL
	RET

;OPTIMIZER ADDED SUBROUTINE, CALLED 5 TIMES, CODE SIZE REDUCTION:9 WORDS
SUBOPT_0x22:
	LDD  R30,Y+16
	LDD  R31,Y+16+1
	SBIW R30,4
	STD  Y+16,R30
	STD  Y+16+1,R31
	RET

;OPTIMIZER ADDED SUBROUTINE, CALLED 3 TIMES, CODE SIZE REDUCTION:3 WORDS
SUBOPT_0x23:
	LDD  R26,Y+13
	LDD  R27,Y+13+1
	LDD  R30,Y+15
	LDD  R31,Y+15+1
	ICALL
	RET

;OPTIMIZER ADDED SUBROUTINE, CALLED 2 TIMES, CODE SIZE REDUCTION:4 WORDS
SUBOPT_0x24:
	LDD  R26,Y+16
	LDD  R27,Y+16+1
	ADIW R26,4
	CALL __GETW1P
	STD  Y+6,R30
	STD  Y+6+1,R31
	LDD  R26,Y+6
	LDD  R27,Y+6+1
	RET

;OPTIMIZER ADDED SUBROUTINE, CALLED 2 TIMES, CODE SIZE REDUCTION:2 WORDS
SUBOPT_0x25:
	LDD  R26,Y+16
	LDD  R27,Y+16+1
	ADIW R26,4
	CALL __GETW1P
	STD  Y+10,R30
	STD  Y+10+1,R31
	RET

;OPTIMIZER ADDED SUBROUTINE, CALLED 2 TIMES, CODE SIZE REDUCTION:1 WORDS
SUBOPT_0x26:
	MOVW R26,R28
	ADIW R26,12
	CALL __ADDW2R15
	CALL __GETW1P
	RET


	.CSEG
_delay_ms:
	adiw r26,0
	breq __delay_ms1
__delay_ms0:
	__DELAY_USW 0x7D0
	wdr
	sbiw r26,1
	brne __delay_ms0
__delay_ms1:
	ret

__ADDW2R15:
	CLR  R0
	ADD  R26,R15
	ADC  R27,R0
	RET

__ADDD12:
	ADD  R30,R26
	ADC  R31,R27
	ADC  R22,R24
	ADC  R23,R25
	RET

__SUBD21:
	SUB  R26,R30
	SBC  R27,R31
	SBC  R24,R22
	SBC  R25,R23
	RET

__ANEGW1:
	NEG  R31
	NEG  R30
	SBCI R31,0
	RET

__LSLB12:
	TST  R30
	MOV  R0,R30
	MOV  R30,R26
	BREQ __LSLB12R
__LSLB12L:
	LSL  R30
	DEC  R0
	BRNE __LSLB12L
__LSLB12R:
	RET

__LSRB12:
	TST  R30
	MOV  R0,R30
	MOV  R30,R26
	BREQ __LSRB12R
__LSRB12L:
	LSR  R30
	DEC  R0
	BRNE __LSRB12L
__LSRB12R:
	RET

__CWD1:
	MOV  R22,R31
	ADD  R22,R22
	SBC  R22,R22
	MOV  R23,R22
	RET

__EQB12:
	CP   R30,R26
	LDI  R30,1
	BREQ __EQB12T
	CLR  R30
__EQB12T:
	RET

__EQW12:
	CP   R30,R26
	CPC  R31,R27
	LDI  R30,1
	BREQ __EQW12T
	CLR  R30
__EQW12T:
	RET

__LNEGB1:
	TST  R30
	LDI  R30,1
	BREQ __LNEGB1F
	CLR  R30
__LNEGB1F:
	RET

__MULW12U:
	MUL  R31,R26
	MOV  R31,R0
	MUL  R30,R27
	ADD  R31,R0
	MUL  R30,R26
	MOV  R30,R0
	ADD  R31,R1
	RET

__DIVW21U:
	CLR  R0
	CLR  R1
	LDI  R25,16
__DIVW21U1:
	LSL  R26
	ROL  R27
	ROL  R0
	ROL  R1
	SUB  R0,R30
	SBC  R1,R31
	BRCC __DIVW21U2
	ADD  R0,R30
	ADC  R1,R31
	RJMP __DIVW21U3
__DIVW21U2:
	SBR  R26,1
__DIVW21U3:
	DEC  R25
	BRNE __DIVW21U1
	MOVW R30,R26
	MOVW R26,R0
	RET

__MODW21U:
	RCALL __DIVW21U
	MOVW R30,R26
	RET

__GETW1P:
	LD   R30,X+
	LD   R31,X
	SBIW R26,1
	RET

__GETW1PF:
	LPM  R0,Z+
	LPM  R31,Z
	MOV  R30,R0
	RET

__PUTPARD1:
	ST   -Y,R23
	ST   -Y,R22
	ST   -Y,R31
	ST   -Y,R30
	RET

__EEPROMRDB:
	SBIC EECR,EEWE
	RJMP __EEPROMRDB
	PUSH R31
	IN   R31,SREG
	CLI
	OUT  EEARL,R26
	OUT  EEARH,R27
	SBI  EECR,EERE
	IN   R30,EEDR
	OUT  SREG,R31
	POP  R31
	RET

__EEPROMWRB:
	SBIS EECR,EEWE
	RJMP __EEPROMWRB1
	WDR
	RJMP __EEPROMWRB
__EEPROMWRB1:
	IN   R25,SREG
	CLI
	OUT  EEARL,R26
	OUT  EEARH,R27
	SBI  EECR,EERE
	IN   R24,EEDR
	CP   R30,R24
	BREQ __EEPROMWRB0
	OUT  EEDR,R30
	SBI  EECR,EEMWE
	SBI  EECR,EEWE
__EEPROMWRB0:
	OUT  SREG,R25
	RET

__COPYMML:
	CLR  R25
__COPYMM:
	PUSH R30
	PUSH R31
__COPYMM0:
	LD   R22,Z+
	ST   X+,R22
	SBIW R24,1
	BRNE __COPYMM0
	POP  R31
	POP  R30
	RET

__CPW02:
	CLR  R0
	CP   R0,R26
	CPC  R0,R27
	RET

__CPD21:
	CP   R26,R30
	CPC  R27,R31
	CPC  R24,R22
	CPC  R25,R23
	RET

__SAVELOCR6:
	ST   -Y,R21
__SAVELOCR5:
	ST   -Y,R20
__SAVELOCR4:
	ST   -Y,R19
__SAVELOCR3:
	ST   -Y,R18
__SAVELOCR2:
	ST   -Y,R17
	ST   -Y,R16
	RET

__LOADLOCR6:
	LDD  R21,Y+5
__LOADLOCR5:
	LDD  R20,Y+4
__LOADLOCR4:
	LDD  R19,Y+3
__LOADLOCR3:
	LDD  R18,Y+2
__LOADLOCR2:
	LDD  R17,Y+1
	LD   R16,Y
	RET

;END OF CODE MARKER
__END_OF_CODE:
